TN:
SF:/Users/nikita/Projects/GitHub/s21_Containers/src/array/s21_array.tpp
FN:104,_ZN3s215arrayINS0_IiLm1EEELm2EE4backEv
FN:104,_ZN3s215arrayIiLm2EE4backEv
FN:109,_ZNK3s215arrayINS0_IiLm1EEELm2EE4backEv
FN:109,_ZNK3s215arrayIiLm2EE4backEv
FN:114,_ZN3s215arrayIiLm2EE4dataEv
FN:119,_ZNK3s215arrayINS0_IiLm1EEELm2EE4dataEv
FN:119,_ZNK3s215arrayIiLm2EE4dataEv
FN:12,_ZN3s215arrayINS0_IiLm1EEELm3EEC1ERKS2_
FN:12,_ZN3s215arrayINS0_IiLm1EEELm3EEC2ERKS2_
FN:12,_ZN3s215arrayIiLm3EEC1ERKS1_
FN:12,_ZN3s215arrayIiLm3EEC2ERKS1_
FN:124,_ZNK3s215arrayINS0_IiLm1EEELm0EE5emptyEv
FN:124,_ZNK3s215arrayIiLm0EE5emptyEv
FN:129,_ZNK3s215arrayINS0_IiLm1EEELm3EE4sizeEv
FN:129,_ZNK3s215arrayIiLm3EE4sizeEv
FN:134,_ZNK3s215arrayINS0_IiLm1EEELm3EE8max_sizeEv
FN:134,_ZNK3s215arrayIiLm3EE8max_sizeEv
FN:139,_ZN3s215arrayINS0_IiLm1EEELm2EE4fillERKS1_
FN:139,_ZN3s215arrayIiLm3EE4fillERKi
FN:146,_ZN3s215arrayIiLm3EE4swapERS1_
FN:153,_ZN3s215arrayIiLm3EE5beginEv
FN:158,_ZN3s215arrayIiLm3EE3endEv
FN:163,_ZNK3s215arrayIiLm3EE6cbeginEv
FN:168,_ZNK3s215arrayIiLm3EE4cendEv
FN:173,_ZN3s21eqINS_5arrayIiLm1EEELm2EEEbRKNS1_IT_XT0_EEES6_
FN:173,_ZN3s21eqIiLm1EEEbRKNS_5arrayIT_XT0_EEES5_
FN:173,_ZN3s21eqIiLm3EEEbRKNS_5arrayIT_XT0_EEES5_
FN:187,_ZN3s21neINS_5arrayIiLm1EEELm2EEEbRKNS1_IT_XT0_EEES6_
FN:187,_ZN3s21neIiLm1EEEbRKNS_5arrayIT_XT0_EEES5_
FN:187,_ZN3s21neIiLm3EEEbRKNS_5arrayIT_XT0_EEES5_
FN:19,_ZN3s215arrayINS0_IiLm1EEELm2EEC1ESt16initializer_listIS1_E
FN:19,_ZN3s215arrayINS0_IiLm1EEELm2EEC2ESt16initializer_listIS1_E
FN:19,_ZN3s215arrayINS0_IiLm1EEELm3EEC1ESt16initializer_listIS1_E
FN:19,_ZN3s215arrayINS0_IiLm1EEELm3EEC2ESt16initializer_listIS1_E
FN:19,_ZN3s215arrayIiLm1EEC1ESt16initializer_listIiE
FN:19,_ZN3s215arrayIiLm1EEC2ESt16initializer_listIiE
FN:19,_ZN3s215arrayIiLm2EEC1ESt16initializer_listIiE
FN:19,_ZN3s215arrayIiLm2EEC2ESt16initializer_listIiE
FN:19,_ZN3s215arrayIiLm3EEC1ESt16initializer_listIiE
FN:19,_ZN3s215arrayIiLm3EEC2ESt16initializer_listIiE
FN:29,_ZN3s215arrayINS0_IiLm1EEELm3EEC1EOS2_
FN:29,_ZN3s215arrayINS0_IiLm1EEELm3EEC2EOS2_
FN:29,_ZN3s215arrayIiLm3EEC1EOS1_
FN:29,_ZN3s215arrayIiLm3EEC2EOS1_
FN:36,_ZN3s215arrayIiLm1EEaSERKS1_
FN:46,_ZN3s215arrayIiLm1EEaSEOS1_
FN:56,_ZN3s215arrayIiLm1EEaSESt16initializer_listIiE
FN:68,_ZN3s215arrayINS0_IiLm1EEELm2EE2atEm
FN:68,_ZN3s215arrayIiLm2EE2atEm
FN:76,_ZNK3s215arrayINS0_IiLm1EEELm2EE2atEm
FN:76,_ZNK3s215arrayIiLm2EE2atEm
FN:84,_ZN3s215arrayINS0_IiLm1EEELm2EEixEm
FN:84,_ZN3s215arrayIiLm2EEixEm
FN:89,_ZNK3s215arrayINS0_IiLm1EEELm2EEixEm
FN:89,_ZNK3s215arrayINS0_IiLm1EEELm3EEixEm
FN:89,_ZNK3s215arrayIiLm1EEixEm
FN:89,_ZNK3s215arrayIiLm2EEixEm
FN:89,_ZNK3s215arrayIiLm3EEixEm
FN:9,_ZN3s215arrayINS0_IiLm1EEELm0EEC1Ev
FN:9,_ZN3s215arrayINS0_IiLm1EEELm0EEC2Ev
FN:9,_ZN3s215arrayIiLm0EEC1Ev
FN:9,_ZN3s215arrayIiLm0EEC2Ev
FN:9,_ZN3s215arrayIiLm1EEC1Ev
FN:9,_ZN3s215arrayIiLm1EEC2Ev
FN:94,_ZN3s215arrayINS0_IiLm1EEELm2EE5frontEv
FN:94,_ZN3s215arrayIiLm2EE5frontEv
FN:99,_ZNK3s215arrayINS0_IiLm1EEELm2EE5frontEv
FN:99,_ZNK3s215arrayIiLm2EE5frontEv
FNDA:2,_ZN3s215arrayINS0_IiLm1EEELm2EE4backEv
FNDA:1,_ZN3s215arrayIiLm2EE4backEv
FNDA:1,_ZNK3s215arrayINS0_IiLm1EEELm2EE4backEv
FNDA:2,_ZNK3s215arrayIiLm2EE4backEv
FNDA:1,_ZN3s215arrayIiLm2EE4dataEv
FNDA:1,_ZNK3s215arrayINS0_IiLm1EEELm2EE4dataEv
FNDA:1,_ZNK3s215arrayIiLm2EE4dataEv
FNDA:1,_ZN3s215arrayINS0_IiLm1EEELm3EEC1ERKS2_
FNDA:1,_ZN3s215arrayINS0_IiLm1EEELm3EEC2ERKS2_
FNDA:1,_ZN3s215arrayIiLm3EEC1ERKS1_
FNDA:1,_ZN3s215arrayIiLm3EEC2ERKS1_
FNDA:1,_ZNK3s215arrayINS0_IiLm1EEELm0EE5emptyEv
FNDA:1,_ZNK3s215arrayIiLm0EE5emptyEv
FNDA:2,_ZNK3s215arrayINS0_IiLm1EEELm3EE4sizeEv
FNDA:2,_ZNK3s215arrayIiLm3EE4sizeEv
FNDA:1,_ZNK3s215arrayINS0_IiLm1EEELm3EE8max_sizeEv
FNDA:1,_ZNK3s215arrayIiLm3EE8max_sizeEv
FNDA:1,_ZN3s215arrayINS0_IiLm1EEELm2EE4fillERKS1_
FNDA:1,_ZN3s215arrayIiLm3EE4fillERKi
FNDA:1,_ZN3s215arrayIiLm3EE4swapERS1_
FNDA:1,_ZN3s215arrayIiLm3EE5beginEv
FNDA:1,_ZN3s215arrayIiLm3EE3endEv
FNDA:1,_ZNK3s215arrayIiLm3EE6cbeginEv
FNDA:1,_ZNK3s215arrayIiLm3EE4cendEv
FNDA:2,_ZN3s21eqINS_5arrayIiLm1EEELm2EEEbRKNS1_IT_XT0_EEES6_
FNDA:2,_ZN3s21eqIiLm1EEEbRKNS_5arrayIT_XT0_EEES5_
FNDA:2,_ZN3s21eqIiLm3EEEbRKNS_5arrayIT_XT0_EEES5_
FNDA:1,_ZN3s21neINS_5arrayIiLm1EEELm2EEEbRKNS1_IT_XT0_EEES6_
FNDA:2,_ZN3s21neIiLm1EEEbRKNS_5arrayIT_XT0_EEES5_
FNDA:1,_ZN3s21neIiLm3EEEbRKNS_5arrayIT_XT0_EEES5_
FNDA:6,_ZN3s215arrayINS0_IiLm1EEELm2EEC1ESt16initializer_listIS1_E
FNDA:6,_ZN3s215arrayINS0_IiLm1EEELm2EEC2ESt16initializer_listIS1_E
FNDA:3,_ZN3s215arrayINS0_IiLm1EEELm3EEC1ESt16initializer_listIS1_E
FNDA:3,_ZN3s215arrayINS0_IiLm1EEELm3EEC2ESt16initializer_listIS1_E
FNDA:22,_ZN3s215arrayIiLm1EEC1ESt16initializer_listIiE
FNDA:22,_ZN3s215arrayIiLm1EEC2ESt16initializer_listIiE
FNDA:4,_ZN3s215arrayIiLm2EEC1ESt16initializer_listIiE
FNDA:4,_ZN3s215arrayIiLm2EEC2ESt16initializer_listIiE
FNDA:6,_ZN3s215arrayIiLm3EEC1ESt16initializer_listIiE
FNDA:6,_ZN3s215arrayIiLm3EEC2ESt16initializer_listIiE
FNDA:1,_ZN3s215arrayINS0_IiLm1EEELm3EEC1EOS2_
FNDA:1,_ZN3s215arrayINS0_IiLm1EEELm3EEC2EOS2_
FNDA:1,_ZN3s215arrayIiLm3EEC1EOS1_
FNDA:1,_ZN3s215arrayIiLm3EEC2EOS1_
FNDA:26,_ZN3s215arrayIiLm1EEaSERKS1_
FNDA:3,_ZN3s215arrayIiLm1EEaSEOS1_
FNDA:4,_ZN3s215arrayIiLm1EEaSESt16initializer_listIiE
FNDA:3,_ZN3s215arrayINS0_IiLm1EEELm2EE2atEm
FNDA:3,_ZN3s215arrayIiLm2EE2atEm
FNDA:2,_ZNK3s215arrayINS0_IiLm1EEELm2EE2atEm
FNDA:2,_ZNK3s215arrayIiLm2EE2atEm
FNDA:2,_ZN3s215arrayINS0_IiLm1EEELm2EEixEm
FNDA:2,_ZN3s215arrayIiLm2EEixEm
FNDA:7,_ZNK3s215arrayINS0_IiLm1EEELm2EEixEm
FNDA:6,_ZNK3s215arrayINS0_IiLm1EEELm3EEixEm
FNDA:21,_ZNK3s215arrayIiLm1EEixEm
FNDA:5,_ZNK3s215arrayIiLm2EEixEm
FNDA:16,_ZNK3s215arrayIiLm3EEixEm
FNDA:1,_ZN3s215arrayINS0_IiLm1EEELm0EEC1Ev
FNDA:1,_ZN3s215arrayINS0_IiLm1EEELm0EEC2Ev
FNDA:1,_ZN3s215arrayIiLm0EEC1Ev
FNDA:1,_ZN3s215arrayIiLm0EEC2Ev
FNDA:27,_ZN3s215arrayIiLm1EEC1Ev
FNDA:27,_ZN3s215arrayIiLm1EEC2Ev
FNDA:2,_ZN3s215arrayINS0_IiLm1EEELm2EE5frontEv
FNDA:1,_ZN3s215arrayIiLm2EE5frontEv
FNDA:1,_ZNK3s215arrayINS0_IiLm1EEELm2EE5frontEv
FNDA:2,_ZNK3s215arrayIiLm2EE5frontEv
FNF:68
FNH:68
DA:9,87
DA:12,4
DA:13,8
DA:14,7
DA:15,15
DA:16,5
DA:19,82
DA:20,41
DA:22,110
DA:23,69
DA:24,69
DA:26,82
DA:29,4
DA:30,8
DA:31,6
DA:32,6
DA:33,4
DA:36,26
DA:37,26
DA:38,52
DA:39,26
DA:40,26
DA:41,26
DA:42,26
DA:46,3
DA:47,3
DA:48,6
DA:49,3
DA:50,77
DA:51,3
DA:52,3
DA:56,4
DA:57,4
DA:59,8
DA:60,4
DA:61,4
DA:64,4
DA:68,6
DA:69,6
DA:70,2
DA:72,4
DA:73,0
DA:76,4
DA:77,4
DA:78,2
DA:80,2
DA:81,0
DA:84,4
DA:85,4
DA:89,55
DA:90,55
DA:94,3
DA:95,3
DA:99,3
DA:100,3
DA:104,3
DA:105,3
DA:109,3
DA:110,3
DA:114,1
DA:115,1
DA:119,2
DA:120,2
DA:124,2
DA:125,2
DA:129,4
DA:130,4
DA:134,2
DA:135,2
DA:139,2
DA:140,7
DA:141,5
DA:142,5
DA:143,2
DA:146,1
DA:147,4
DA:148,3
DA:149,3
DA:150,1
DA:153,1
DA:154,1
DA:158,1
DA:159,1
DA:163,1
DA:164,1
DA:168,1
DA:169,1
DA:173,6
DA:174,6
DA:176,6
DA:177,6
DA:178,6
DA:179,6
DA:181,0
DA:183,6
DA:187,4
DA:188,4
LF:97
LH:94
end_of_record
TN:
SF:/Users/nikita/Projects/GitHub/s21_Containers/src/iterators/s21_list_iterators.tpp
FN:107,_ZNK3s214listINS0_IiEEE12ListIteratorneERKS3_
FN:107,_ZNK3s214listIiE12ListIteratorneERKS2_
FN:113,_ZNK3s214listINS0_IiEEE17ListConstIteratorneERKS3_
FN:113,_ZNK3s214listIiE17ListConstIteratorneERKS2_
FN:15,_ZN3s214listINS0_IiEEE12ListIteratorC1EPNS2_4NodeE
FN:15,_ZN3s214listINS0_IiEEE12ListIteratorC2EPNS2_4NodeE
FN:15,_ZN3s214listIiE12ListIteratorC1EPNS1_4NodeE
FN:15,_ZN3s214listIiE12ListIteratorC2EPNS1_4NodeE
FN:19,_ZN3s214listIiE12ListIteratorC1EPKNS1_4NodeE
FN:19,_ZN3s214listIiE12ListIteratorC2EPKNS1_4NodeE
FN:23,_ZN3s214listIiE12ListIteratorC1ERKS2_
FN:23,_ZN3s214listIiE12ListIteratorC2ERKS2_
FN:27,_ZN3s214listINS0_IiEEE17ListConstIteratorC1ERKS3_
FN:27,_ZN3s214listINS0_IiEEE17ListConstIteratorC2ERKS3_
FN:27,_ZN3s214listIiE17ListConstIteratorC1ERKS2_
FN:27,_ZN3s214listIiE17ListConstIteratorC2ERKS2_
FN:32,_ZN3s214listINS0_IiEEE17ListConstIteratorC1ERKNS2_12ListIteratorE
FN:32,_ZN3s214listINS0_IiEEE17ListConstIteratorC2ERKNS2_12ListIteratorE
FN:32,_ZN3s214listIiE17ListConstIteratorC1ERKNS1_12ListIteratorE
FN:32,_ZN3s214listIiE17ListConstIteratorC2ERKNS1_12ListIteratorE
FN:37,_ZN3s214listINS0_IiEEE17ListConstIteratorC1EPKNS2_4NodeE
FN:37,_ZN3s214listINS0_IiEEE17ListConstIteratorC2EPKNS2_4NodeE
FN:37,_ZN3s214listIiE17ListConstIteratorC1EPKNS1_4NodeE
FN:37,_ZN3s214listIiE17ListConstIteratorC2EPKNS1_4NodeE
FN:41,_ZN3s214listINS0_IiEEE12ListIteratoraSERKS3_
FN:41,_ZN3s214listIiE12ListIteratoraSERKS2_
FN:50,_ZN3s214listINS0_IiEEE17ListConstIteratoraSERKS3_
FN:50,_ZN3s214listIiE17ListConstIteratoraSERKS2_
FN:59,_ZN3s214listINS0_IiEEE12ListIteratordeEv
FN:59,_ZN3s214listIiE12ListIteratordeEv
FN:64,_ZNK3s214listINS0_IiEEE17ListConstIteratordeEv
FN:64,_ZNK3s214listIiE17ListConstIteratordeEv
FN:69,_ZN3s214listINS0_IiEEE12ListIteratorppEv
FN:69,_ZN3s214listIiE12ListIteratorppEv
FN:76,_ZN3s214listINS0_IiEEE17ListConstIteratorppEv
FN:76,_ZN3s214listIiE17ListConstIteratorppEv
FN:82,_ZN3s214listINS0_IiEEE12ListIteratormmEv
FN:82,_ZN3s214listIiE12ListIteratormmEv
FN:89,_ZN3s214listINS0_IiEEE17ListConstIteratormmEv
FN:89,_ZN3s214listIiE17ListConstIteratormmEv
FN:9,_ZN3s214listINS0_IiEEE12ListIteratorC1Ev
FN:9,_ZN3s214listINS0_IiEEE12ListIteratorC2Ev
FN:9,_ZN3s214listIiE12ListIteratorC1Ev
FN:9,_ZN3s214listIiE12ListIteratorC2Ev
FNDA:25,_ZNK3s214listINS0_IiEEE12ListIteratorneERKS3_
FNDA:25,_ZNK3s214listIiE12ListIteratorneERKS2_
FNDA:180,_ZNK3s214listINS0_IiEEE17ListConstIteratorneERKS3_
FNDA:1219,_ZNK3s214listIiE17ListConstIteratorneERKS2_
FNDA:91,_ZN3s214listINS0_IiEEE12ListIteratorC1EPNS2_4NodeE
FNDA:91,_ZN3s214listINS0_IiEEE12ListIteratorC2EPNS2_4NodeE
FNDA:672,_ZN3s214listIiE12ListIteratorC1EPNS1_4NodeE
FNDA:672,_ZN3s214listIiE12ListIteratorC2EPNS1_4NodeE
FNDA:2,_ZN3s214listIiE12ListIteratorC1EPKNS1_4NodeE
FNDA:2,_ZN3s214listIiE12ListIteratorC2EPKNS1_4NodeE
FNDA:151,_ZN3s214listIiE12ListIteratorC1ERKS2_
FNDA:151,_ZN3s214listIiE12ListIteratorC2ERKS2_
FNDA:11,_ZN3s214listINS0_IiEEE17ListConstIteratorC1ERKS3_
FNDA:11,_ZN3s214listINS0_IiEEE17ListConstIteratorC2ERKS3_
FNDA:88,_ZN3s214listIiE17ListConstIteratorC1ERKS2_
FNDA:88,_ZN3s214listIiE17ListConstIteratorC2ERKS2_
FNDA:15,_ZN3s214listINS0_IiEEE17ListConstIteratorC1ERKNS2_12ListIteratorE
FNDA:15,_ZN3s214listINS0_IiEEE17ListConstIteratorC2ERKNS2_12ListIteratorE
FNDA:15,_ZN3s214listIiE17ListConstIteratorC1ERKNS1_12ListIteratorE
FNDA:15,_ZN3s214listIiE17ListConstIteratorC2ERKNS1_12ListIteratorE
FNDA:113,_ZN3s214listINS0_IiEEE17ListConstIteratorC1EPKNS2_4NodeE
FNDA:113,_ZN3s214listINS0_IiEEE17ListConstIteratorC2EPKNS2_4NodeE
FNDA:1043,_ZN3s214listIiE17ListConstIteratorC1EPKNS1_4NodeE
FNDA:1043,_ZN3s214listIiE17ListConstIteratorC2EPKNS1_4NodeE
FNDA:11,_ZN3s214listINS0_IiEEE12ListIteratoraSERKS3_
FNDA:55,_ZN3s214listIiE12ListIteratoraSERKS2_
FNDA:6,_ZN3s214listINS0_IiEEE17ListConstIteratoraSERKS3_
FNDA:15,_ZN3s214listIiE17ListConstIteratoraSERKS2_
FNDA:22,_ZN3s214listINS0_IiEEE12ListIteratordeEv
FNDA:24,_ZN3s214listIiE12ListIteratordeEv
FNDA:149,_ZNK3s214listINS0_IiEEE17ListConstIteratordeEv
FNDA:843,_ZNK3s214listIiE17ListConstIteratordeEv
FNDA:19,_ZN3s214listINS0_IiEEE12ListIteratorppEv
FNDA:285,_ZN3s214listIiE12ListIteratorppEv
FNDA:148,_ZN3s214listINS0_IiEEE17ListConstIteratorppEv
FNDA:865,_ZN3s214listIiE17ListConstIteratorppEv
FNDA:28,_ZN3s214listINS0_IiEEE12ListIteratormmEv
FNDA:367,_ZN3s214listIiE12ListIteratormmEv
FNDA:13,_ZN3s214listINS0_IiEEE17ListConstIteratormmEv
FNDA:16,_ZN3s214listIiE17ListConstIteratormmEv
FNDA:1,_ZN3s214listINS0_IiEEE12ListIteratorC1Ev
FNDA:1,_ZN3s214listINS0_IiEEE12ListIteratorC2Ev
FNDA:1,_ZN3s214listIiE12ListIteratorC1Ev
FNDA:1,_ZN3s214listIiE12ListIteratorC2Ev
FNF:44
FNH:44
DA:9,4
DA:15,1526
DA:16,1526
DA:19,4
DA:20,4
DA:23,302
DA:24,302
DA:27,198
DA:29,198
DA:32,60
DA:34,60
DA:37,2312
DA:38,2312
DA:41,66
DA:43,66
DA:44,66
DA:45,66
DA:46,66
DA:50,21
DA:52,21
DA:53,21
DA:54,21
DA:55,21
DA:59,46
DA:60,46
DA:64,992
DA:65,992
DA:69,304
DA:70,304
DA:71,304
DA:76,1013
DA:77,1013
DA:78,1013
DA:82,395
DA:83,395
DA:84,395
DA:89,29
DA:90,29
DA:91,29
DA:107,50
DA:109,50
DA:113,1399
DA:115,1399
LF:43
LH:43
end_of_record
TN:
SF:/Users/nikita/Projects/GitHub/s21_Containers/src/iterators/s21_seq_iterators.tpp
FN:113,_ZN3s2116SequenceIteratorIiEmIEl
FN:127,_ZN3s2116SequenceIteratorIiEplEl
FN:143,_ZN3s2116SequenceIteratorIiEmiEl
FN:15,_ZN3s2116SequenceIteratorINS_6vectorIiEEEC1EPS2_
FN:15,_ZN3s2116SequenceIteratorINS_6vectorIiEEEC2EPS2_
FN:15,_ZN3s2116SequenceIteratorIiEC1EPi
FN:15,_ZN3s2116SequenceIteratorIiEC2EPi
FN:166,_ZN3s2121ConstSequenceIteratorIiEmiERKS1_
FN:173,_ZNK3s2116SequenceIteratorIiEeqERKS1_
FN:18,_ZN3s2121ConstSequenceIteratorINS_6vectorIiEEEC1EPKS2_
FN:18,_ZN3s2121ConstSequenceIteratorINS_6vectorIiEEEC2EPKS2_
FN:18,_ZN3s2121ConstSequenceIteratorIiEC1EPKi
FN:18,_ZN3s2121ConstSequenceIteratorIiEC2EPKi
FN:191,_ZNK3s2121ConstSequenceIteratorINS_6vectorIiEEEneERKS3_
FN:191,_ZNK3s2121ConstSequenceIteratorIiEneERKS1_
FN:209,_ZNK3s2116SequenceIteratorIiEltERKS1_
FN:22,_ZN3s2116SequenceIteratorIiEC1ERKS1_
FN:22,_ZN3s2116SequenceIteratorIiEC2ERKS1_
FN:227,_ZNK3s2121ConstSequenceIteratorIiEgeERKS1_
FN:233,_ZNK3s2116SequenceIteratorIiEleERKS1_
FN:26,_ZN3s2121ConstSequenceIteratorINS_6vectorIiEEEC1ERKS3_
FN:26,_ZN3s2121ConstSequenceIteratorINS_6vectorIiEEEC2ERKS3_
FN:26,_ZN3s2121ConstSequenceIteratorIiEC1ERKS1_
FN:26,_ZN3s2121ConstSequenceIteratorIiEC2ERKS1_
FN:31,_ZN3s2116SequenceIteratorINS_6vectorIiEEED1Ev
FN:31,_ZN3s2116SequenceIteratorINS_6vectorIiEEED2Ev
FN:31,_ZN3s2116SequenceIteratorIiED1Ev
FN:31,_ZN3s2116SequenceIteratorIiED2Ev
FN:34,_ZN3s2121ConstSequenceIteratorINS_6vectorIiEEED1Ev
FN:34,_ZN3s2121ConstSequenceIteratorINS_6vectorIiEEED2Ev
FN:34,_ZN3s2121ConstSequenceIteratorIiED1Ev
FN:34,_ZN3s2121ConstSequenceIteratorIiED2Ev
FN:37,_ZN3s2116SequenceIteratorINS_6vectorIiEEEdeEv
FN:37,_ZN3s2116SequenceIteratorIiEdeEv
FN:42,_ZNK3s2121ConstSequenceIteratorINS_6vectorIiEEEdeEv
FN:42,_ZNK3s2121ConstSequenceIteratorIiEdeEv
FN:47,_ZN3s2116SequenceIteratorIiEppEv
FN:53,_ZN3s2121ConstSequenceIteratorINS_6vectorIiEEEppEv
FN:53,_ZN3s2121ConstSequenceIteratorIiEppEv
FN:73,_ZN3s2116SequenceIteratorINS_6vectorIiEEEmmEv
FN:73,_ZN3s2116SequenceIteratorIiEmmEv
FN:79,_ZN3s2121ConstSequenceIteratorINS_6vectorIiEEEmmEv
FN:79,_ZN3s2121ConstSequenceIteratorIiEmmEv
FN:9,_ZN3s2116SequenceIteratorIiEC1Ev
FN:9,_ZN3s2116SequenceIteratorIiEC2Ev
FN:99,_ZN3s2116SequenceIteratorIiEpLEl
FNDA:6,_ZN3s2116SequenceIteratorIiEmIEl
FNDA:7,_ZN3s2116SequenceIteratorIiEplEl
FNDA:6,_ZN3s2116SequenceIteratorIiEmiEl
FNDA:5,_ZN3s2116SequenceIteratorINS_6vectorIiEEEC1EPS2_
FNDA:5,_ZN3s2116SequenceIteratorINS_6vectorIiEEEC2EPS2_
FNDA:59,_ZN3s2116SequenceIteratorIiEC1EPi
FNDA:59,_ZN3s2116SequenceIteratorIiEC2EPi
FNDA:10,_ZN3s2121ConstSequenceIteratorIiEmiERKS1_
FNDA:1,_ZNK3s2116SequenceIteratorIiEeqERKS1_
FNDA:72,_ZN3s2121ConstSequenceIteratorINS_6vectorIiEEEC1EPKS2_
FNDA:72,_ZN3s2121ConstSequenceIteratorINS_6vectorIiEEEC2EPKS2_
FNDA:386,_ZN3s2121ConstSequenceIteratorIiEC1EPKi
FNDA:386,_ZN3s2121ConstSequenceIteratorIiEC2EPKi
FNDA:149,_ZNK3s2121ConstSequenceIteratorINS_6vectorIiEEEneERKS3_
FNDA:517,_ZNK3s2121ConstSequenceIteratorIiEneERKS1_
FNDA:21,_ZNK3s2116SequenceIteratorIiEltERKS1_
FNDA:3,_ZN3s2116SequenceIteratorIiEC1ERKS1_
FNDA:3,_ZN3s2116SequenceIteratorIiEC2ERKS1_
FNDA:4,_ZNK3s2121ConstSequenceIteratorIiEgeERKS1_
FNDA:9,_ZNK3s2116SequenceIteratorIiEleERKS1_
FNDA:4,_ZN3s2121ConstSequenceIteratorINS_6vectorIiEEEC1ERKS3_
FNDA:4,_ZN3s2121ConstSequenceIteratorINS_6vectorIiEEEC2ERKS3_
FNDA:13,_ZN3s2121ConstSequenceIteratorIiEC1ERKS1_
FNDA:13,_ZN3s2121ConstSequenceIteratorIiEC2ERKS1_
FNDA:5,_ZN3s2116SequenceIteratorINS_6vectorIiEEED1Ev
FNDA:5,_ZN3s2116SequenceIteratorINS_6vectorIiEEED2Ev
FNDA:66,_ZN3s2116SequenceIteratorIiED1Ev
FNDA:66,_ZN3s2116SequenceIteratorIiED2Ev
FNDA:76,_ZN3s2121ConstSequenceIteratorINS_6vectorIiEEED1Ev
FNDA:76,_ZN3s2121ConstSequenceIteratorINS_6vectorIiEEED2Ev
FNDA:399,_ZN3s2121ConstSequenceIteratorIiED1Ev
FNDA:399,_ZN3s2121ConstSequenceIteratorIiED2Ev
FNDA:5,_ZN3s2116SequenceIteratorINS_6vectorIiEEEdeEv
FNDA:44,_ZN3s2116SequenceIteratorIiEdeEv
FNDA:126,_ZNK3s2121ConstSequenceIteratorINS_6vectorIiEEEdeEv
FNDA:389,_ZNK3s2121ConstSequenceIteratorIiEdeEv
FNDA:15,_ZN3s2116SequenceIteratorIiEppEv
FNDA:131,_ZN3s2121ConstSequenceIteratorINS_6vectorIiEEEppEv
FNDA:399,_ZN3s2121ConstSequenceIteratorIiEppEv
FNDA:1,_ZN3s2116SequenceIteratorINS_6vectorIiEEEmmEv
FNDA:11,_ZN3s2116SequenceIteratorIiEmmEv
FNDA:1,_ZN3s2121ConstSequenceIteratorINS_6vectorIiEEEmmEv
FNDA:2,_ZN3s2121ConstSequenceIteratorIiEmmEv
FNDA:4,_ZN3s2116SequenceIteratorIiEC1Ev
FNDA:4,_ZN3s2116SequenceIteratorIiEC2Ev
FNDA:7,_ZN3s2116SequenceIteratorIiEpLEl
FNF:46
FNH:46
DA:9,8
DA:15,128
DA:18,916
DA:19,916
DA:22,6
DA:23,6
DA:26,34
DA:28,34
DA:31,142
DA:34,950
DA:37,49
DA:38,49
DA:42,515
DA:43,515
DA:47,15
DA:48,15
DA:49,15
DA:53,530
DA:54,530
DA:55,530
DA:73,12
DA:74,12
DA:75,12
DA:79,3
DA:80,3
DA:81,3
DA:99,7
DA:101,7
DA:102,7
DA:113,6
DA:115,6
DA:116,6
DA:127,7
DA:129,7
DA:130,7
DA:131,7
DA:132,7
DA:143,6
DA:145,6
DA:146,6
DA:147,6
DA:148,6
DA:166,10
DA:168,10
DA:169,10
DA:173,1
DA:175,1
DA:191,666
DA:193,666
DA:209,21
DA:211,21
DA:227,4
DA:229,4
DA:233,9
DA:235,9
LF:55
LH:55
end_of_record
TN:
SF:/Users/nikita/Projects/GitHub/s21_Containers/src/list/s21_list.tpp
FN:111,_ZN3s214listINS0_IiEEEaSESt16initializer_listIS1_E
FN:111,_ZN3s214listIiEaSESt16initializer_listIiE
FN:12,_ZN3s214listINS0_IiEEEC1ERKS2_
FN:12,_ZN3s214listINS0_IiEEEC2ERKS2_
FN:12,_ZN3s214listIiEC1ERKS1_
FN:12,_ZN3s214listIiEC2ERKS1_
FN:136,_ZN3s214listINS0_IiEEE5frontEv
FN:136,_ZN3s214listIiE5frontEv
FN:141,_ZNK3s214listINS0_IiEEE5frontEv
FN:141,_ZNK3s214listIiE5frontEv
FN:146,_ZN3s214listINS0_IiEEE4backEv
FN:146,_ZN3s214listIiE4backEv
FN:151,_ZNK3s214listINS0_IiEEE4backEv
FN:151,_ZNK3s214listIiE4backEv
FN:156,_ZN3s214listINS0_IiEEE3endEv
FN:156,_ZN3s214listIiE3endEv
FN:161,_ZN3s214listINS0_IiEEE5beginEv
FN:161,_ZN3s214listIiE5beginEv
FN:166,_ZNK3s214listINS0_IiEEE4cendEv
FN:166,_ZNK3s214listIiE4cendEv
FN:171,_ZNK3s214listINS0_IiEEE6cbeginEv
FN:171,_ZNK3s214listIiE6cbeginEv
FN:176,_ZNK3s214listINS0_IiEEE5emptyEv
FN:176,_ZNK3s214listIiE5emptyEv
FN:181,_ZNK3s214listINS0_IiEEE4sizeEv
FN:181,_ZNK3s214listIiE4sizeEv
FN:186,_ZNK3s214listINS0_IiEEE8max_sizeEv
FN:186,_ZNK3s214listIiE8max_sizeEv
FN:191,_ZN3s214listINS0_IiEEE5clearEv
FN:191,_ZN3s214listIiE5clearEv
FN:205,_ZN3s214listINS0_IiEEE6insertENS2_17ListConstIteratorERKS1_
FN:205,_ZN3s214listIiE6insertENS1_17ListConstIteratorERKi
FN:224,_ZN3s214listIiE6insertENS1_17ListConstIteratorEmRKi
FN:245,_ZN3s214listINS0_IiEEE6insertENS2_17ListConstIteratorEOS1_
FN:245,_ZN3s214listIiE6insertENS1_17ListConstIteratorEOi
FN:26,_ZN3s214listINS0_IiEEEC1ESt16initializer_listIS1_E
FN:26,_ZN3s214listINS0_IiEEEC2ESt16initializer_listIS1_E
FN:26,_ZN3s214listIiEC1ESt16initializer_listIiE
FN:26,_ZN3s214listIiEC2ESt16initializer_listIiE
FN:264,_ZN3s214listINS0_IiEEE5eraseENS2_17ListConstIteratorE
FN:264,_ZN3s214listIiE5eraseENS1_17ListConstIteratorE
FN:278,_ZN3s214listIiE5eraseENS1_17ListConstIteratorES2_
FN:288,_ZN3s214listINS0_IiEEE9push_backERKS1_
FN:288,_ZN3s214listIiE9push_backERKi
FN:310,_ZN3s214listINS0_IiEEE9push_backEOS1_
FN:310,_ZN3s214listIiE9push_backEOi
FN:328,_ZN3s214listINS0_IiEEE8pop_backEv
FN:328,_ZN3s214listIiE8pop_backEv
FN:341,_ZN3s214listINS0_IiEEE10push_frontERKS1_
FN:341,_ZN3s214listIiE10push_frontERKi
FN:361,_ZN3s214listINS0_IiEEE10push_frontEOS1_
FN:361,_ZN3s214listIiE10push_frontEOi
FN:377,_ZN3s214listINS0_IiEEE9pop_frontEv
FN:377,_ZN3s214listIiE9pop_frontEv
FN:388,_ZN3s214listINS0_IiEEE6resizeEmRKS1_
FN:388,_ZN3s214listIiE6resizeEmRKi
FN:40,_ZN3s214listINS0_IiEEEC1EOS2_
FN:40,_ZN3s214listINS0_IiEEEC2EOS2_
FN:40,_ZN3s214listIiEC1EOS1_
FN:40,_ZN3s214listIiEC2EOS1_
FN:440,_ZN3s214listINS0_IiEEE6resizeEm
FN:440,_ZN3s214listIiE6resizeEm
FN:445,_ZN3s214listINS0_IiEEE4swapERS2_
FN:445,_ZN3s214listIiE4swapERS1_
FN:477,_ZN3s214listIiE5mergeERS1_
FN:501,_ZN3s214listIiE5mergeEOS1_
FN:525,_ZN3s214listIiE6spliceENS1_17ListConstIteratorERS1_
FN:554,_ZN3s214listIiE6spliceENS1_17ListConstIteratorEOS1_
FN:56,_ZN3s214listINS0_IiEEED1Ev
FN:56,_ZN3s214listINS0_IiEEED2Ev
FN:56,_ZN3s214listIiED1Ev
FN:56,_ZN3s214listIiED2Ev
FN:583,_ZN3s214listIiE6spliceENS1_17ListConstIteratorERS1_S2_
FN:588,_ZN3s214listIiE6spliceENS1_17ListConstIteratorEOS1_S2_
FN:594,_ZN3s214listIiE6spliceENS1_17ListConstIteratorERS1_S2_S2_
FN:61,_ZN3s214listINS0_IiEEEaSERKS2_
FN:61,_ZN3s214listIiEaSERKS1_
FN:642,_ZN3s214listIiE6spliceENS1_17ListConstIteratorEOS1_S2_S2_
FN:693,_ZN3s214listINS0_IiEEE6removeERKS1_
FN:693,_ZN3s214listIiE6removeERKi
FN:703,_ZN3s214listINS0_IiEEE7reverseEv
FN:703,_ZN3s214listIiE7reverseEv
FN:721,_ZN3s214listINS0_IiEEE6uniqueEv
FN:721,_ZN3s214listIiE6uniqueEv
FN:737,_ZN3s214listIiE4sortEv
FN:773,_ZN3s21eqIiEEbRKNS_4listIT_EES5_
FN:88,_ZN3s214listIiEaSEOS1_
FN:9,_ZN3s214listINS0_IiEEEC1Ev
FN:9,_ZN3s214listINS0_IiEEEC2Ev
FN:9,_ZN3s214listIiEC1Ev
FN:9,_ZN3s214listIiEC2Ev
FNDA:6,_ZN3s214listINS0_IiEEEaSESt16initializer_listIS1_E
FNDA:22,_ZN3s214listIiEaSESt16initializer_listIiE
FNDA:3,_ZN3s214listINS0_IiEEEC1ERKS2_
FNDA:3,_ZN3s214listINS0_IiEEEC2ERKS2_
FNDA:94,_ZN3s214listIiEC1ERKS1_
FNDA:94,_ZN3s214listIiEC2ERKS1_
FNDA:1,_ZN3s214listINS0_IiEEE5frontEv
FNDA:1,_ZN3s214listIiE5frontEv
FNDA:1,_ZNK3s214listINS0_IiEEE5frontEv
FNDA:1,_ZNK3s214listIiE5frontEv
FNDA:1,_ZN3s214listINS0_IiEEE4backEv
FNDA:1,_ZN3s214listIiE4backEv
FNDA:1,_ZNK3s214listINS0_IiEEE4backEv
FNDA:1,_ZNK3s214listIiE4backEv
FNDA:46,_ZN3s214listINS0_IiEEE3endEv
FNDA:301,_ZN3s214listIiE3endEv
FNDA:26,_ZN3s214listINS0_IiEEE5beginEv
FNDA:352,_ZN3s214listIiE5beginEv
FNDA:66,_ZNK3s214listINS0_IiEEE4cendEv
FNDA:601,_ZNK3s214listIiE4cendEv
FNDA:47,_ZNK3s214listINS0_IiEEE6cbeginEv
FNDA:442,_ZNK3s214listIiE6cbeginEv
FNDA:5,_ZNK3s214listINS0_IiEEE5emptyEv
FNDA:5,_ZNK3s214listIiE5emptyEv
FNDA:150,_ZNK3s214listINS0_IiEEE4sizeEv
FNDA:1446,_ZNK3s214listIiE4sizeEv
FNDA:1,_ZNK3s214listINS0_IiEEE8max_sizeEv
FNDA:1,_ZNK3s214listIiE8max_sizeEv
FNDA:41,_ZN3s214listINS0_IiEEE5clearEv
FNDA:519,_ZN3s214listIiE5clearEv
FNDA:1,_ZN3s214listINS0_IiEEE6insertENS2_17ListConstIteratorERKS1_
FNDA:2,_ZN3s214listIiE6insertENS1_17ListConstIteratorERKi
FNDA:1,_ZN3s214listIiE6insertENS1_17ListConstIteratorEmRKi
FNDA:2,_ZN3s214listINS0_IiEEE6insertENS2_17ListConstIteratorEOS1_
FNDA:1,_ZN3s214listIiE6insertENS1_17ListConstIteratorEOi
FNDA:20,_ZN3s214listINS0_IiEEEC1ESt16initializer_listIS1_E
FNDA:20,_ZN3s214listINS0_IiEEEC2ESt16initializer_listIS1_E
FNDA:148,_ZN3s214listIiEC1ESt16initializer_listIiE
FNDA:148,_ZN3s214listIiEC2ESt16initializer_listIiE
FNDA:16,_ZN3s214listINS0_IiEEE5eraseENS2_17ListConstIteratorE
FNDA:16,_ZN3s214listIiE5eraseENS1_17ListConstIteratorE
FNDA:1,_ZN3s214listIiE5eraseENS1_17ListConstIteratorES2_
FNDA:97,_ZN3s214listINS0_IiEEE9push_backERKS1_
FNDA:591,_ZN3s214listIiE9push_backERKi
FNDA:1,_ZN3s214listINS0_IiEEE9push_backEOS1_
FNDA:1,_ZN3s214listIiE9push_backEOi
FNDA:3,_ZN3s214listINS0_IiEEE8pop_backEv
FNDA:3,_ZN3s214listIiE8pop_backEv
FNDA:2,_ZN3s214listINS0_IiEEE10push_frontERKS1_
FNDA:2,_ZN3s214listIiE10push_frontERKi
FNDA:1,_ZN3s214listINS0_IiEEE10push_frontEOS1_
FNDA:1,_ZN3s214listIiE10push_frontEOi
FNDA:3,_ZN3s214listINS0_IiEEE9pop_frontEv
FNDA:3,_ZN3s214listIiE9pop_frontEv
FNDA:6,_ZN3s214listINS0_IiEEE6resizeEmRKS1_
FNDA:6,_ZN3s214listIiE6resizeEmRKi
FNDA:2,_ZN3s214listINS0_IiEEEC1EOS2_
FNDA:2,_ZN3s214listINS0_IiEEEC2EOS2_
FNDA:2,_ZN3s214listIiEC1EOS1_
FNDA:2,_ZN3s214listIiEC2EOS1_
FNDA:2,_ZN3s214listINS0_IiEEE6resizeEm
FNDA:2,_ZN3s214listIiE6resizeEm
FNDA:2,_ZN3s214listINS0_IiEEE4swapERS2_
FNDA:4,_ZN3s214listIiE4swapERS1_
FNDA:13,_ZN3s214listIiE5mergeERS1_
FNDA:1,_ZN3s214listIiE5mergeEOS1_
FNDA:8,_ZN3s214listIiE6spliceENS1_17ListConstIteratorERS1_
FNDA:1,_ZN3s214listIiE6spliceENS1_17ListConstIteratorEOS1_
FNDA:32,_ZN3s214listINS0_IiEEED1Ev
FNDA:32,_ZN3s214listINS0_IiEEED2Ev
FNDA:383,_ZN3s214listIiED1Ev
FNDA:383,_ZN3s214listIiED2Ev
FNDA:4,_ZN3s214listIiE6spliceENS1_17ListConstIteratorERS1_S2_
FNDA:1,_ZN3s214listIiE6spliceENS1_17ListConstIteratorEOS1_S2_
FNDA:22,_ZN3s214listIiE6spliceENS1_17ListConstIteratorERS1_S2_S2_
FNDA:1,_ZN3s214listINS0_IiEEEaSERKS2_
FNDA:104,_ZN3s214listIiEaSERKS1_
FNDA:1,_ZN3s214listIiE6spliceENS1_17ListConstIteratorEOS1_S2_S2_
FNDA:4,_ZN3s214listINS0_IiEEE6removeERKS1_
FNDA:4,_ZN3s214listIiE6removeERKi
FNDA:3,_ZN3s214listINS0_IiEEE7reverseEv
FNDA:3,_ZN3s214listIiE7reverseEv
FNDA:3,_ZN3s214listINS0_IiEEE6uniqueEv
FNDA:3,_ZN3s214listIiE6uniqueEv
FNDA:11,_ZN3s214listIiE4sortEv
FNDA:26,_ZN3s21eqIiEEbRKNS_4listIT_EES5_
FNDA:8,_ZN3s214listIiEaSEOS1_
FNDA:7,_ZN3s214listINS0_IiEEEC1Ev
FNDA:7,_ZN3s214listINS0_IiEEEC2Ev
FNDA:139,_ZN3s214listIiEC1Ev
FNDA:139,_ZN3s214listIiEC2Ev
FNF:91
FNH:91
DA:9,292
DA:12,194
DA:13,194
DA:15,508
DA:16,254
DA:17,157
DA:18,157
DA:19,97
DA:20,0
DA:21,0
DA:22,0
DA:23,194
DA:26,336
DA:27,336
DA:29,674
DA:30,506
DA:33,168
DA:34,0
DA:35,0
DA:36,0
DA:37,336
DA:40,8
DA:41,8
DA:42,4
DA:43,4
DA:44,4
DA:46,4
DA:47,4
DA:48,4
DA:50,4
DA:51,4
DA:52,4
DA:53,8
DA:56,830
DA:57,415
DA:58,830
DA:61,105
DA:62,105
DA:63,105
DA:64,93
DA:66,93
DA:68,93
DA:70,93
DA:71,93
DA:73,93
DA:74,93
DA:76,93
DA:77,93
DA:78,93
DA:79,93
DA:80,12
DA:82,105
DA:84,105
DA:88,8
DA:89,8
DA:90,8
DA:92,8
DA:93,6
DA:95,6
DA:96,6
DA:98,6
DA:99,6
DA:101,6
DA:102,6
DA:103,6
DA:104,6
DA:105,8
DA:107,8
DA:111,28
DA:112,28
DA:113,21
DA:115,21
DA:117,21
DA:119,21
DA:120,21
DA:122,21
DA:123,21
DA:125,21
DA:126,21
DA:127,21
DA:128,21
DA:129,7
DA:132,28
DA:136,2
DA:137,2
DA:141,2
DA:142,2
DA:146,2
DA:147,2
DA:151,2
DA:152,2
DA:156,347
DA:157,347
DA:161,378
DA:162,378
DA:166,667
DA:167,667
DA:171,489
DA:172,489
DA:176,10
DA:177,10
DA:181,1596
DA:182,1596
DA:186,2
DA:187,2
DA:191,560
DA:192,560
DA:193,560
DA:194,1218
DA:195,658
DA:196,658
DA:197,658
DA:198,658
DA:199,560
DA:200,560
DA:201,560
DA:202,560
DA:205,3
DA:207,3
DA:209,3
DA:210,3
DA:211,3
DA:213,3
DA:214,3
DA:216,3
DA:218,3
DA:220,3
DA:224,1
DA:226,1
DA:229,3
DA:230,2
DA:231,2
DA:232,1
DA:233,0
DA:234,0
DA:235,0
DA:237,1
DA:239,1
DA:241,1
DA:242,1
DA:245,3
DA:247,3
DA:249,3
DA:250,3
DA:251,3
DA:253,3
DA:254,3
DA:256,3
DA:258,3
DA:260,3
DA:264,32
DA:265,32
DA:267,32
DA:268,32
DA:270,32
DA:272,32
DA:274,32
DA:278,1
DA:280,1
DA:281,0
DA:284,1
DA:288,688
DA:289,688
DA:292,688
DA:293,97
DA:294,0
DA:295,0
DA:297,688
DA:298,688
DA:299,688
DA:301,688
DA:302,688
DA:303,270
DA:304,270
DA:306,688
DA:307,688
DA:310,2
DA:311,2
DA:313,2
DA:315,2
DA:316,2
DA:317,2
DA:319,2
DA:320,2
DA:321,0
DA:322,0
DA:324,2
DA:325,2
DA:328,6
DA:329,6
DA:331,6
DA:333,6
DA:335,6
DA:337,6
DA:338,6
DA:341,4
DA:342,4
DA:345,4
DA:346,2
DA:347,0
DA:348,0
DA:350,4
DA:351,4
DA:353,4
DA:355,4
DA:357,4
DA:358,4
DA:361,2
DA:362,2
DA:364,2
DA:366,2
DA:367,2
DA:369,2
DA:371,2
DA:373,2
DA:374,2
DA:377,6
DA:378,6
DA:380,6
DA:382,6
DA:384,6
DA:385,6
DA:388,12
DA:389,12
DA:390,4
DA:391,12
DA:392,4
DA:395,27
DA:396,23
DA:397,23
DA:398,4
DA:399,0
DA:400,0
DA:401,0
DA:403,4
DA:404,4
DA:406,4
DA:407,4
DA:409,4
DA:410,4
DA:411,4
DA:413,4
DA:415,8
DA:416,2
DA:417,2
DA:418,2
DA:420,12
DA:421,10
DA:422,2
DA:423,2
DA:424,10
DA:425,6
DA:426,6
DA:427,2
DA:429,10
DA:432,2
DA:433,2
DA:435,2
DA:436,2
DA:437,12
DA:440,4
DA:441,4
DA:442,4
DA:445,6
DA:446,6
DA:447,6
DA:448,6
DA:449,6
DA:450,6
DA:452,6
DA:453,3
DA:454,3
DA:455,3
DA:456,3
DA:457,3
DA:458,3
DA:459,3
DA:462,6
DA:463,3
DA:464,3
DA:465,3
DA:466,3
DA:467,3
DA:468,3
DA:469,3
DA:472,6
DA:473,6
DA:474,6
DA:477,13
DA:478,13
DA:479,13
DA:480,22
DA:481,9
DA:483,26
DA:484,17
DA:487,9
DA:488,9
DA:489,9
DA:491,9
DA:494,13
DA:495,2
DA:496,2
DA:497,13
DA:498,13
DA:501,1
DA:502,1
DA:503,1
DA:504,6
DA:505,5
DA:507,13
DA:508,8
DA:511,5
DA:512,4
DA:513,4
DA:515,5
DA:518,1
DA:519,1
DA:520,1
DA:521,1
DA:522,1
DA:525,8
DA:526,8
DA:527,6
DA:528,6
DA:530,36
DA:531,30
DA:533,6
DA:535,6
DA:537,6
DA:538,6
DA:540,6
DA:542,6
DA:543,6
DA:545,6
DA:547,6
DA:548,6
DA:549,6
DA:550,6
DA:551,8
DA:554,1
DA:555,1
DA:556,1
DA:557,1
DA:559,2
DA:560,1
DA:562,1
DA:564,1
DA:566,1
DA:567,1
DA:569,1
DA:571,1
DA:572,1
DA:574,1
DA:576,1
DA:577,1
DA:578,1
DA:579,1
DA:580,1
DA:583,4
DA:584,4
DA:585,4
DA:588,1
DA:590,1
DA:591,1
DA:594,22
DA:596,22
DA:597,21
DA:599,21
DA:600,16
DA:601,52
DA:602,36
DA:603,36
DA:605,16
DA:607,21
DA:608,85
DA:609,64
DA:610,21
DA:611,21
DA:613,21
DA:614,40
DA:615,19
DA:616,21
DA:617,21
DA:619,21
DA:620,85
DA:621,64
DA:622,21
DA:623,21
DA:625,21
DA:626,21
DA:628,21
DA:629,21
DA:631,21
DA:632,21
DA:634,21
DA:635,16
DA:636,16
DA:637,16
DA:638,21
DA:639,22
DA:642,1
DA:644,1
DA:645,1
DA:647,1
DA:648,4
DA:649,3
DA:650,3
DA:653,4
DA:654,3
DA:655,3
DA:656,1
DA:658,1
DA:659,1
DA:660,0
DA:661,1
DA:662,1
DA:664,1
DA:665,3
DA:666,2
DA:667,1
DA:668,1
DA:670,1
DA:671,6
DA:672,5
DA:673,1
DA:674,1
DA:676,1
DA:677,1
DA:679,1
DA:680,1
DA:682,1
DA:683,1
DA:685,1
DA:686,1
DA:687,1
DA:688,1
DA:689,1
DA:690,1
DA:693,8
DA:694,38
DA:695,30
DA:696,14
DA:697,14
DA:698,14
DA:699,30
DA:700,8
DA:703,6
DA:704,6
DA:705,15
DA:706,9
DA:707,9
DA:708,9
DA:710,9
DA:711,9
DA:713,6
DA:714,4
DA:715,4
DA:716,4
DA:717,4
DA:718,6
DA:721,6
DA:722,6
DA:724,27
DA:725,21
DA:726,21
DA:728,21
DA:729,7
DA:730,7
DA:731,14
DA:734,6
DA:737,11
DA:738,11
DA:740,11
DA:741,25
DA:742,14
DA:743,14
DA:745,11
DA:746,11
DA:748,11
DA:749,11
DA:750,11
DA:751,10
DA:752,10
DA:753,10
DA:754,10
DA:755,10
DA:757,11
DA:758,11
DA:759,11
DA:761,11
DA:762,3
DA:763,3
DA:765,11
DA:766,4
DA:767,4
DA:769,11
DA:770,11
DA:773,26
DA:774,26
DA:776,26
DA:777,26
DA:779,37
DA:780,26
DA:781,15
DA:782,15
DA:784,11
DA:785,11
DA:788,26
DA:789,15
DA:790,15
DA:792,26
LF:511
LH:491
end_of_record
TN:
SF:/Users/nikita/Projects/GitHub/s21_Containers/src/stack/s21_stack.tpp
FN:12,_ZN3s215stackIiNS_6vectorIiEEEC1ERKS3_
FN:12,_ZN3s215stackIiNS_6vectorIiEEEC2ERKS3_
FN:15,_ZN3s215stackIiNS_6vectorIiEEEC1ESt16initializer_listIiE
FN:15,_ZN3s215stackIiNS_6vectorIiEEEC2ESt16initializer_listIiE
FN:18,_ZN3s215stackIiNS_6vectorIiEEEC1EOS3_
FN:18,_ZN3s215stackIiNS_6vectorIiEEEC2EOS3_
FN:22,_ZN3s215stackIiNS_6vectorIiEEED1Ev
FN:22,_ZN3s215stackIiNS_6vectorIiEEED2Ev
FN:25,_ZN3s215stackIiNS_6vectorIiEEEaSERKS3_
FN:33,_ZN3s215stackIiNS_6vectorIiEEEaSEOS3_
FN:41,_ZN3s215stackIiNS_6vectorIiEEE3topEv
FN:46,_ZNK3s215stackIiNS_6vectorIiEEE3topEv
FN:51,_ZNK3s215stackIiNS_6vectorIiEEE5emptyEv
FN:56,_ZNK3s215stackIiNS_6vectorIiEEE4sizeEv
FN:61,_ZN3s215stackIiNS_6vectorIiEEE4pushERKi
FN:66,_ZN3s215stackIiNS_6vectorIiEEE4pushEOi
FN:71,_ZN3s215stackIiNS_6vectorIiEEE3popEv
FN:76,_ZN3s215stackIiNS_6vectorIiEEE4swapERS3_
FN:9,_ZN3s215stackIiNS_6vectorIiEEEC1Ev
FN:9,_ZN3s215stackIiNS_6vectorIiEEEC2Ev
FNDA:1,_ZN3s215stackIiNS_6vectorIiEEEC1ERKS3_
FNDA:1,_ZN3s215stackIiNS_6vectorIiEEEC2ERKS3_
FNDA:1,_ZN3s215stackIiNS_6vectorIiEEEC1ESt16initializer_listIiE
FNDA:1,_ZN3s215stackIiNS_6vectorIiEEEC2ESt16initializer_listIiE
FNDA:1,_ZN3s215stackIiNS_6vectorIiEEEC1EOS3_
FNDA:1,_ZN3s215stackIiNS_6vectorIiEEEC2EOS3_
FNDA:6,_ZN3s215stackIiNS_6vectorIiEEED1Ev
FNDA:6,_ZN3s215stackIiNS_6vectorIiEEED2Ev
FNDA:1,_ZN3s215stackIiNS_6vectorIiEEEaSERKS3_
FNDA:1,_ZN3s215stackIiNS_6vectorIiEEEaSEOS3_
FNDA:10,_ZN3s215stackIiNS_6vectorIiEEE3topEv
FNDA:1,_ZNK3s215stackIiNS_6vectorIiEEE3topEv
FNDA:12,_ZNK3s215stackIiNS_6vectorIiEEE5emptyEv
FNDA:12,_ZNK3s215stackIiNS_6vectorIiEEE4sizeEv
FNDA:3,_ZN3s215stackIiNS_6vectorIiEEE4pushERKi
FNDA:3,_ZN3s215stackIiNS_6vectorIiEEE4pushEOi
FNDA:3,_ZN3s215stackIiNS_6vectorIiEEE3popEv
FNDA:1,_ZN3s215stackIiNS_6vectorIiEEE4swapERS3_
FNDA:3,_ZN3s215stackIiNS_6vectorIiEEEC1Ev
FNDA:3,_ZN3s215stackIiNS_6vectorIiEEEC2Ev
FNF:20
FNH:20
DA:9,6
DA:12,2
DA:15,2
DA:18,2
DA:19,2
DA:22,12
DA:25,1
DA:26,1
DA:27,1
DA:28,1
DA:29,1
DA:33,1
DA:34,1
DA:35,1
DA:36,1
DA:37,1
DA:41,10
DA:42,10
DA:46,1
DA:47,1
DA:51,12
DA:52,12
DA:56,12
DA:57,12
DA:61,3
DA:62,3
DA:63,3
DA:66,3
DA:67,3
DA:68,3
DA:71,3
DA:72,3
DA:73,3
DA:76,1
DA:77,1
LF:35
LH:35
end_of_record
TN:
SF:/Users/nikita/Projects/GitHub/s21_Containers/src/test/test.cpp
FN:0,__cxx_global_var_init
FN:0,__cxx_global_var_init.109
FN:0,__cxx_global_var_init.117
FN:0,__cxx_global_var_init.129
FN:0,__cxx_global_var_init.138
FN:0,__cxx_global_var_init.141
FN:0,__cxx_global_var_init.165
FN:0,__cxx_global_var_init.171
FN:0,__cxx_global_var_init.177
FN:0,__cxx_global_var_init.179
FN:0,__cxx_global_var_init.194
FN:0,__cxx_global_var_init.196
FN:0,__cxx_global_var_init.197
FN:0,__cxx_global_var_init.198
FN:0,__cxx_global_var_init.201
FN:0,__cxx_global_var_init.203
FN:0,__cxx_global_var_init.208
FN:0,__cxx_global_var_init.212
FN:0,__cxx_global_var_init.216
FN:0,__cxx_global_var_init.217
FN:0,__cxx_global_var_init.219
FN:0,__cxx_global_var_init.223
FN:0,__cxx_global_var_init.227
FN:0,__cxx_global_var_init.229
FN:0,__cxx_global_var_init.23
FN:0,__cxx_global_var_init.245
FN:0,__cxx_global_var_init.261
FN:0,__cxx_global_var_init.267
FN:0,__cxx_global_var_init.30
FN:0,__cxx_global_var_init.38
FN:0,__cxx_global_var_init.53
FN:0,__cxx_global_var_init.79
FN:0,__cxx_global_var_init.93
FN:0,__cxx_global_var_init.98
FN:1002,_ZN14LIST_Swap_Test8TestBodyEv
FN:1002,_ZN14LIST_Swap_TestC1Ev
FN:1002,_ZN14LIST_Swap_TestC2Ev
FN:1002,_ZN14LIST_Swap_TestD0Ev
FN:1002,_ZN14LIST_Swap_TestD1Ev
FN:1002,_ZN14LIST_Swap_TestD2Ev
FN:1058,_ZN16LIST_Resize_Test8TestBodyEv
FN:1058,_ZN16LIST_Resize_TestC1Ev
FN:1058,_ZN16LIST_Resize_TestC2Ev
FN:1058,_ZN16LIST_Resize_TestD0Ev
FN:1058,_ZN16LIST_Resize_TestD1Ev
FN:1058,_ZN16LIST_Resize_TestD2Ev
FN:1102,_ZN17LIST_Reverse_Test8TestBodyEv
FN:1102,_ZN17LIST_Reverse_TestC1Ev
FN:1102,_ZN17LIST_Reverse_TestC2Ev
FN:1102,_ZN17LIST_Reverse_TestD0Ev
FN:1102,_ZN17LIST_Reverse_TestD1Ev
FN:1102,_ZN17LIST_Reverse_TestD2Ev
FN:111,_ZN24VECTOR_EmptyMaxSize_Test8TestBodyEv
FN:111,_ZN24VECTOR_EmptyMaxSize_TestC1Ev
FN:111,_ZN24VECTOR_EmptyMaxSize_TestC2Ev
FN:111,_ZN24VECTOR_EmptyMaxSize_TestD0Ev
FN:111,_ZN24VECTOR_EmptyMaxSize_TestD1Ev
FN:111,_ZN24VECTOR_EmptyMaxSize_TestD2Ev
FN:1136,_ZN16LIST_Remove_Test8TestBodyEv
FN:1136,_ZN16LIST_Remove_TestC1Ev
FN:1136,_ZN16LIST_Remove_TestC2Ev
FN:1136,_ZN16LIST_Remove_TestD0Ev
FN:1136,_ZN16LIST_Remove_TestD1Ev
FN:1136,_ZN16LIST_Remove_TestD2Ev
FN:1176,_ZN16LIST_Unique_Test8TestBodyEv
FN:1176,_ZN16LIST_Unique_TestC1Ev
FN:1176,_ZN16LIST_Unique_TestC2Ev
FN:1176,_ZN16LIST_Unique_TestD0Ev
FN:1176,_ZN16LIST_Unique_TestD1Ev
FN:1176,_ZN16LIST_Unique_TestD2Ev
FN:1210,_ZN22LIST_Splice_First_Test8TestBodyEv
FN:1210,_ZN22LIST_Splice_First_TestC1Ev
FN:1210,_ZN22LIST_Splice_First_TestC2Ev
FN:1210,_ZN22LIST_Splice_First_TestD0Ev
FN:1210,_ZN22LIST_Splice_First_TestD1Ev
FN:1210,_ZN22LIST_Splice_First_TestD2Ev
FN:1249,_ZN23LIST_Splice_Second_Test8TestBodyEv
FN:1249,_ZN23LIST_Splice_Second_TestC1Ev
FN:1249,_ZN23LIST_Splice_Second_TestC2Ev
FN:1249,_ZN23LIST_Splice_Second_TestD0Ev
FN:1249,_ZN23LIST_Splice_Second_TestD1Ev
FN:1249,_ZN23LIST_Splice_Second_TestD2Ev
FN:1309,_ZN22LIST_Splice_Third_Test8TestBodyEv
FN:1309,_ZN22LIST_Splice_Third_TestC1Ev
FN:1309,_ZN22LIST_Splice_Third_TestC2Ev
FN:1309,_ZN22LIST_Splice_Third_TestD0Ev
FN:1309,_ZN22LIST_Splice_Third_TestD1Ev
FN:1309,_ZN22LIST_Splice_Third_TestD2Ev
FN:131,_ZN18VECTOR_Insert_Test8TestBodyEv
FN:131,_ZN18VECTOR_Insert_TestC1Ev
FN:131,_ZN18VECTOR_Insert_TestC2Ev
FN:131,_ZN18VECTOR_Insert_TestD0Ev
FN:131,_ZN18VECTOR_Insert_TestD1Ev
FN:131,_ZN18VECTOR_Insert_TestD2Ev
FN:1394,_ZN15LIST_Merge_Test8TestBodyEv
FN:1394,_ZN15LIST_Merge_TestC1Ev
FN:1394,_ZN15LIST_Merge_TestC2Ev
FN:1394,_ZN15LIST_Merge_TestD0Ev
FN:1394,_ZN15LIST_Merge_TestD1Ev
FN:1394,_ZN15LIST_Merge_TestD2Ev
FN:1421,_ZN14LIST_Sort_Test8TestBodyEv
FN:1421,_ZN14LIST_Sort_TestC1Ev
FN:1421,_ZN14LIST_Sort_TestC2Ev
FN:1421,_ZN14LIST_Sort_TestD0Ev
FN:1421,_ZN14LIST_Sort_TestD1Ev
FN:1421,_ZN14LIST_Sort_TestD2Ev
FN:1447,main
FN:208,_ZN25VECTOR_ElementAccess_Test8TestBodyEv
FN:208,_ZN25VECTOR_ElementAccess_TestC1Ev
FN:208,_ZN25VECTOR_ElementAccess_TestC2Ev
FN:208,_ZN25VECTOR_ElementAccess_TestD0Ev
FN:208,_ZN25VECTOR_ElementAccess_TestD1Ev
FN:208,_ZN25VECTOR_ElementAccess_TestD2Ev
FN:242,_ZN16VECTOR_Data_Test8TestBodyEv
FN:242,_ZN16VECTOR_Data_TestC1Ev
FN:242,_ZN16VECTOR_Data_TestC2Ev
FN:242,_ZN16VECTOR_Data_TestD0Ev
FN:242,_ZN16VECTOR_Data_TestD1Ev
FN:242,_ZN16VECTOR_Data_TestD2Ev
FN:264,_ZN25VECTOR_ReserveShrink_Test8TestBodyEv
FN:264,_ZN25VECTOR_ReserveShrink_TestC1Ev
FN:264,_ZN25VECTOR_ReserveShrink_TestC2Ev
FN:264,_ZN25VECTOR_ReserveShrink_TestD0Ev
FN:264,_ZN25VECTOR_ReserveShrink_TestD1Ev
FN:264,_ZN25VECTOR_ReserveShrink_TestD2Ev
FN:315,_ZN27VECTOR_OperatorDoubeEq_Test8TestBodyEv
FN:315,_ZN27VECTOR_OperatorDoubeEq_TestC1Ev
FN:315,_ZN27VECTOR_OperatorDoubeEq_TestC2Ev
FN:315,_ZN27VECTOR_OperatorDoubeEq_TestD0Ev
FN:315,_ZN27VECTOR_OperatorDoubeEq_TestD1Ev
FN:315,_ZN27VECTOR_OperatorDoubeEq_TestD2Ev
FN:335,_ZN18VECTOR_Resize_Test8TestBodyEv
FN:335,_ZN18VECTOR_Resize_TestC1Ev
FN:335,_ZN18VECTOR_Resize_TestC2Ev
FN:335,_ZN18VECTOR_Resize_TestD0Ev
FN:335,_ZN18VECTOR_Resize_TestD1Ev
FN:335,_ZN18VECTOR_Resize_TestD2Ev
FN:379,_ZN17VECTOR_Erase_Test8TestBodyEv
FN:379,_ZN17VECTOR_Erase_TestC1Ev
FN:379,_ZN17VECTOR_Erase_TestC2Ev
FN:379,_ZN17VECTOR_Erase_TestD0Ev
FN:379,_ZN17VECTOR_Erase_TestD1Ev
FN:379,_ZN17VECTOR_Erase_TestD2Ev
FN:409,_ZN27ARRAY_SizeMaxSizeEmpty_Test8TestBodyEv
FN:409,_ZN27ARRAY_SizeMaxSizeEmpty_TestC1Ev
FN:409,_ZN27ARRAY_SizeMaxSizeEmpty_TestC2Ev
FN:409,_ZN27ARRAY_SizeMaxSizeEmpty_TestD0Ev
FN:409,_ZN27ARRAY_SizeMaxSizeEmpty_TestD1Ev
FN:409,_ZN27ARRAY_SizeMaxSizeEmpty_TestD2Ev
FN:429,_ZN20ARRAY_FrontBack_Test8TestBodyEv
FN:429,_ZN20ARRAY_FrontBack_TestC1Ev
FN:429,_ZN20ARRAY_FrontBack_TestC2Ev
FN:429,_ZN20ARRAY_FrontBack_TestD0Ev
FN:429,_ZN20ARRAY_FrontBack_TestD1Ev
FN:429,_ZN20ARRAY_FrontBack_TestD2Ev
FN:459,_ZN25ARRAY_AtBracketsData_Test8TestBodyEv
FN:459,_ZN25ARRAY_AtBracketsData_TestC1Ev
FN:459,_ZN25ARRAY_AtBracketsData_TestC2Ev
FN:459,_ZN25ARRAY_AtBracketsData_TestD0Ev
FN:459,_ZN25ARRAY_AtBracketsData_TestD1Ev
FN:459,_ZN25ARRAY_AtBracketsData_TestD2Ev
FN:499,_ZN20ARRAY_Iterators_Test8TestBodyEv
FN:499,_ZN20ARRAY_Iterators_TestC1Ev
FN:499,_ZN20ARRAY_Iterators_TestC2Ev
FN:499,_ZN20ARRAY_Iterators_TestD0Ev
FN:499,_ZN20ARRAY_Iterators_TestD1Ev
FN:499,_ZN20ARRAY_Iterators_TestD2Ev
FN:5,_ZN24VECTOR_Constructors_Test8TestBodyEv
FN:5,_ZN24VECTOR_Constructors_TestC1Ev
FN:5,_ZN24VECTOR_Constructors_TestC2Ev
FN:5,_ZN24VECTOR_Constructors_TestD0Ev
FN:5,_ZN24VECTOR_Constructors_TestD1Ev
FN:5,_ZN24VECTOR_Constructors_TestD2Ev
FN:508,_ZN24ARRAY_FillSwapEqual_Test8TestBodyEv
FN:508,_ZN24ARRAY_FillSwapEqual_TestC1Ev
FN:508,_ZN24ARRAY_FillSwapEqual_TestC2Ev
FN:508,_ZN24ARRAY_FillSwapEqual_TestD0Ev
FN:508,_ZN24ARRAY_FillSwapEqual_TestD1Ev
FN:508,_ZN24ARRAY_FillSwapEqual_TestD2Ev
FN:534,_ZN28ARRAY_ConstructorAssign_Test8TestBodyEv
FN:534,_ZN28ARRAY_ConstructorAssign_TestC1Ev
FN:534,_ZN28ARRAY_ConstructorAssign_TestC2Ev
FN:534,_ZN28ARRAY_ConstructorAssign_TestD0Ev
FN:534,_ZN28ARRAY_ConstructorAssign_TestD1Ev
FN:534,_ZN28ARRAY_ConstructorAssign_TestD2Ev
FN:560,_ZN14STACK_All_Test8TestBodyEv
FN:560,_ZN14STACK_All_TestC1Ev
FN:560,_ZN14STACK_All_TestC2Ev
FN:560,_ZN14STACK_All_TestD0Ev
FN:560,_ZN14STACK_All_TestD1Ev
FN:560,_ZN14STACK_All_TestD2Ev
FN:634,_ZN22LIST_Constructors_Test8TestBodyEv
FN:634,_ZN22LIST_Constructors_TestC1Ev
FN:634,_ZN22LIST_Constructors_TestC2Ev
FN:634,_ZN22LIST_Constructors_TestD0Ev
FN:634,_ZN22LIST_Constructors_TestD1Ev
FN:634,_ZN22LIST_Constructors_TestD2Ev
FN:708,_ZN19LIST_FrontBack_Test8TestBodyEv
FN:708,_ZN19LIST_FrontBack_TestC1Ev
FN:708,_ZN19LIST_FrontBack_TestC2Ev
FN:708,_ZN19LIST_FrontBack_TestD0Ev
FN:708,_ZN19LIST_FrontBack_TestD1Ev
FN:708,_ZN19LIST_FrontBack_TestD2Ev
FN:736,_ZN22LIST_EmptyMaxSize_Test8TestBodyEv
FN:736,_ZN22LIST_EmptyMaxSize_TestC1Ev
FN:736,_ZN22LIST_EmptyMaxSize_TestC2Ev
FN:736,_ZN22LIST_EmptyMaxSize_TestD0Ev
FN:736,_ZN22LIST_EmptyMaxSize_TestD1Ev
FN:736,_ZN22LIST_EmptyMaxSize_TestD2Ev
FN:756,_ZN16LIST_Insert_Test8TestBodyEv
FN:756,_ZN16LIST_Insert_TestC1Ev
FN:756,_ZN16LIST_Insert_TestC2Ev
FN:756,_ZN16LIST_Insert_TestD0Ev
FN:756,_ZN16LIST_Insert_TestD1Ev
FN:756,_ZN16LIST_Insert_TestD2Ev
FN:79,_ZN21VECTOR_FrontBack_Test8TestBodyEv
FN:79,_ZN21VECTOR_FrontBack_TestC1Ev
FN:79,_ZN21VECTOR_FrontBack_TestC2Ev
FN:79,_ZN21VECTOR_FrontBack_TestD0Ev
FN:79,_ZN21VECTOR_FrontBack_TestD1Ev
FN:79,_ZN21VECTOR_FrontBack_TestD2Ev
FN:808,_ZN20LIST_OperatorEq_Test8TestBodyEv
FN:808,_ZN20LIST_OperatorEq_TestC1Ev
FN:808,_ZN20LIST_OperatorEq_TestC2Ev
FN:808,_ZN20LIST_OperatorEq_TestD0Ev
FN:808,_ZN20LIST_OperatorEq_TestD1Ev
FN:808,_ZN20LIST_OperatorEq_TestD2Ev
FN:886,_ZN15LIST_Erase_Test8TestBodyEv
FN:886,_ZN15LIST_Erase_TestC1Ev
FN:886,_ZN15LIST_Erase_TestC2Ev
FN:886,_ZN15LIST_Erase_TestD0Ev
FN:886,_ZN15LIST_Erase_TestD1Ev
FN:886,_ZN15LIST_Erase_TestD2Ev
FN:946,_ZN17LIST_PushPop_Test8TestBodyEv
FN:946,_ZN17LIST_PushPop_TestC1Ev
FN:946,_ZN17LIST_PushPop_TestC2Ev
FN:946,_ZN17LIST_PushPop_TestD0Ev
FN:946,_ZN17LIST_PushPop_TestD1Ev
FN:946,_ZN17LIST_PushPop_TestD2Ev
FNDA:1,__cxx_global_var_init
FNDA:1,__cxx_global_var_init.109
FNDA:1,__cxx_global_var_init.117
FNDA:1,__cxx_global_var_init.129
FNDA:1,__cxx_global_var_init.138
FNDA:1,__cxx_global_var_init.141
FNDA:1,__cxx_global_var_init.165
FNDA:1,__cxx_global_var_init.171
FNDA:1,__cxx_global_var_init.177
FNDA:1,__cxx_global_var_init.179
FNDA:1,__cxx_global_var_init.194
FNDA:1,__cxx_global_var_init.196
FNDA:1,__cxx_global_var_init.197
FNDA:1,__cxx_global_var_init.198
FNDA:1,__cxx_global_var_init.201
FNDA:1,__cxx_global_var_init.203
FNDA:1,__cxx_global_var_init.208
FNDA:1,__cxx_global_var_init.212
FNDA:1,__cxx_global_var_init.216
FNDA:1,__cxx_global_var_init.217
FNDA:1,__cxx_global_var_init.219
FNDA:1,__cxx_global_var_init.223
FNDA:1,__cxx_global_var_init.227
FNDA:1,__cxx_global_var_init.229
FNDA:1,__cxx_global_var_init.23
FNDA:1,__cxx_global_var_init.245
FNDA:1,__cxx_global_var_init.261
FNDA:1,__cxx_global_var_init.267
FNDA:1,__cxx_global_var_init.30
FNDA:1,__cxx_global_var_init.38
FNDA:1,__cxx_global_var_init.53
FNDA:1,__cxx_global_var_init.79
FNDA:1,__cxx_global_var_init.93
FNDA:1,__cxx_global_var_init.98
FNDA:1,_ZN14LIST_Swap_Test8TestBodyEv
FNDA:1,_ZN14LIST_Swap_TestC1Ev
FNDA:1,_ZN14LIST_Swap_TestC2Ev
FNDA:1,_ZN14LIST_Swap_TestD0Ev
FNDA:1,_ZN14LIST_Swap_TestD1Ev
FNDA:1,_ZN14LIST_Swap_TestD2Ev
FNDA:1,_ZN16LIST_Resize_Test8TestBodyEv
FNDA:1,_ZN16LIST_Resize_TestC1Ev
FNDA:1,_ZN16LIST_Resize_TestC2Ev
FNDA:1,_ZN16LIST_Resize_TestD0Ev
FNDA:1,_ZN16LIST_Resize_TestD1Ev
FNDA:1,_ZN16LIST_Resize_TestD2Ev
FNDA:1,_ZN17LIST_Reverse_Test8TestBodyEv
FNDA:1,_ZN17LIST_Reverse_TestC1Ev
FNDA:1,_ZN17LIST_Reverse_TestC2Ev
FNDA:1,_ZN17LIST_Reverse_TestD0Ev
FNDA:1,_ZN17LIST_Reverse_TestD1Ev
FNDA:1,_ZN17LIST_Reverse_TestD2Ev
FNDA:1,_ZN24VECTOR_EmptyMaxSize_Test8TestBodyEv
FNDA:1,_ZN24VECTOR_EmptyMaxSize_TestC1Ev
FNDA:1,_ZN24VECTOR_EmptyMaxSize_TestC2Ev
FNDA:1,_ZN24VECTOR_EmptyMaxSize_TestD0Ev
FNDA:1,_ZN24VECTOR_EmptyMaxSize_TestD1Ev
FNDA:1,_ZN24VECTOR_EmptyMaxSize_TestD2Ev
FNDA:1,_ZN16LIST_Remove_Test8TestBodyEv
FNDA:1,_ZN16LIST_Remove_TestC1Ev
FNDA:1,_ZN16LIST_Remove_TestC2Ev
FNDA:1,_ZN16LIST_Remove_TestD0Ev
FNDA:1,_ZN16LIST_Remove_TestD1Ev
FNDA:1,_ZN16LIST_Remove_TestD2Ev
FNDA:1,_ZN16LIST_Unique_Test8TestBodyEv
FNDA:1,_ZN16LIST_Unique_TestC1Ev
FNDA:1,_ZN16LIST_Unique_TestC2Ev
FNDA:1,_ZN16LIST_Unique_TestD0Ev
FNDA:1,_ZN16LIST_Unique_TestD1Ev
FNDA:1,_ZN16LIST_Unique_TestD2Ev
FNDA:1,_ZN22LIST_Splice_First_Test8TestBodyEv
FNDA:1,_ZN22LIST_Splice_First_TestC1Ev
FNDA:1,_ZN22LIST_Splice_First_TestC2Ev
FNDA:1,_ZN22LIST_Splice_First_TestD0Ev
FNDA:1,_ZN22LIST_Splice_First_TestD1Ev
FNDA:1,_ZN22LIST_Splice_First_TestD2Ev
FNDA:1,_ZN23LIST_Splice_Second_Test8TestBodyEv
FNDA:1,_ZN23LIST_Splice_Second_TestC1Ev
FNDA:1,_ZN23LIST_Splice_Second_TestC2Ev
FNDA:1,_ZN23LIST_Splice_Second_TestD0Ev
FNDA:1,_ZN23LIST_Splice_Second_TestD1Ev
FNDA:1,_ZN23LIST_Splice_Second_TestD2Ev
FNDA:1,_ZN22LIST_Splice_Third_Test8TestBodyEv
FNDA:1,_ZN22LIST_Splice_Third_TestC1Ev
FNDA:1,_ZN22LIST_Splice_Third_TestC2Ev
FNDA:1,_ZN22LIST_Splice_Third_TestD0Ev
FNDA:1,_ZN22LIST_Splice_Third_TestD1Ev
FNDA:1,_ZN22LIST_Splice_Third_TestD2Ev
FNDA:1,_ZN18VECTOR_Insert_Test8TestBodyEv
FNDA:1,_ZN18VECTOR_Insert_TestC1Ev
FNDA:1,_ZN18VECTOR_Insert_TestC2Ev
FNDA:1,_ZN18VECTOR_Insert_TestD0Ev
FNDA:1,_ZN18VECTOR_Insert_TestD1Ev
FNDA:1,_ZN18VECTOR_Insert_TestD2Ev
FNDA:1,_ZN15LIST_Merge_Test8TestBodyEv
FNDA:1,_ZN15LIST_Merge_TestC1Ev
FNDA:1,_ZN15LIST_Merge_TestC2Ev
FNDA:1,_ZN15LIST_Merge_TestD0Ev
FNDA:1,_ZN15LIST_Merge_TestD1Ev
FNDA:1,_ZN15LIST_Merge_TestD2Ev
FNDA:1,_ZN14LIST_Sort_Test8TestBodyEv
FNDA:1,_ZN14LIST_Sort_TestC1Ev
FNDA:1,_ZN14LIST_Sort_TestC2Ev
FNDA:1,_ZN14LIST_Sort_TestD0Ev
FNDA:1,_ZN14LIST_Sort_TestD1Ev
FNDA:1,_ZN14LIST_Sort_TestD2Ev
FNDA:1,main
FNDA:1,_ZN25VECTOR_ElementAccess_Test8TestBodyEv
FNDA:1,_ZN25VECTOR_ElementAccess_TestC1Ev
FNDA:1,_ZN25VECTOR_ElementAccess_TestC2Ev
FNDA:1,_ZN25VECTOR_ElementAccess_TestD0Ev
FNDA:1,_ZN25VECTOR_ElementAccess_TestD1Ev
FNDA:1,_ZN25VECTOR_ElementAccess_TestD2Ev
FNDA:1,_ZN16VECTOR_Data_Test8TestBodyEv
FNDA:1,_ZN16VECTOR_Data_TestC1Ev
FNDA:1,_ZN16VECTOR_Data_TestC2Ev
FNDA:1,_ZN16VECTOR_Data_TestD0Ev
FNDA:1,_ZN16VECTOR_Data_TestD1Ev
FNDA:1,_ZN16VECTOR_Data_TestD2Ev
FNDA:1,_ZN25VECTOR_ReserveShrink_Test8TestBodyEv
FNDA:1,_ZN25VECTOR_ReserveShrink_TestC1Ev
FNDA:1,_ZN25VECTOR_ReserveShrink_TestC2Ev
FNDA:1,_ZN25VECTOR_ReserveShrink_TestD0Ev
FNDA:1,_ZN25VECTOR_ReserveShrink_TestD1Ev
FNDA:1,_ZN25VECTOR_ReserveShrink_TestD2Ev
FNDA:1,_ZN27VECTOR_OperatorDoubeEq_Test8TestBodyEv
FNDA:1,_ZN27VECTOR_OperatorDoubeEq_TestC1Ev
FNDA:1,_ZN27VECTOR_OperatorDoubeEq_TestC2Ev
FNDA:1,_ZN27VECTOR_OperatorDoubeEq_TestD0Ev
FNDA:1,_ZN27VECTOR_OperatorDoubeEq_TestD1Ev
FNDA:1,_ZN27VECTOR_OperatorDoubeEq_TestD2Ev
FNDA:1,_ZN18VECTOR_Resize_Test8TestBodyEv
FNDA:1,_ZN18VECTOR_Resize_TestC1Ev
FNDA:1,_ZN18VECTOR_Resize_TestC2Ev
FNDA:1,_ZN18VECTOR_Resize_TestD0Ev
FNDA:1,_ZN18VECTOR_Resize_TestD1Ev
FNDA:1,_ZN18VECTOR_Resize_TestD2Ev
FNDA:1,_ZN17VECTOR_Erase_Test8TestBodyEv
FNDA:1,_ZN17VECTOR_Erase_TestC1Ev
FNDA:1,_ZN17VECTOR_Erase_TestC2Ev
FNDA:1,_ZN17VECTOR_Erase_TestD0Ev
FNDA:1,_ZN17VECTOR_Erase_TestD1Ev
FNDA:1,_ZN17VECTOR_Erase_TestD2Ev
FNDA:1,_ZN27ARRAY_SizeMaxSizeEmpty_Test8TestBodyEv
FNDA:1,_ZN27ARRAY_SizeMaxSizeEmpty_TestC1Ev
FNDA:1,_ZN27ARRAY_SizeMaxSizeEmpty_TestC2Ev
FNDA:1,_ZN27ARRAY_SizeMaxSizeEmpty_TestD0Ev
FNDA:1,_ZN27ARRAY_SizeMaxSizeEmpty_TestD1Ev
FNDA:1,_ZN27ARRAY_SizeMaxSizeEmpty_TestD2Ev
FNDA:1,_ZN20ARRAY_FrontBack_Test8TestBodyEv
FNDA:1,_ZN20ARRAY_FrontBack_TestC1Ev
FNDA:1,_ZN20ARRAY_FrontBack_TestC2Ev
FNDA:1,_ZN20ARRAY_FrontBack_TestD0Ev
FNDA:1,_ZN20ARRAY_FrontBack_TestD1Ev
FNDA:1,_ZN20ARRAY_FrontBack_TestD2Ev
FNDA:1,_ZN25ARRAY_AtBracketsData_Test8TestBodyEv
FNDA:1,_ZN25ARRAY_AtBracketsData_TestC1Ev
FNDA:1,_ZN25ARRAY_AtBracketsData_TestC2Ev
FNDA:1,_ZN25ARRAY_AtBracketsData_TestD0Ev
FNDA:1,_ZN25ARRAY_AtBracketsData_TestD1Ev
FNDA:1,_ZN25ARRAY_AtBracketsData_TestD2Ev
FNDA:1,_ZN20ARRAY_Iterators_Test8TestBodyEv
FNDA:1,_ZN20ARRAY_Iterators_TestC1Ev
FNDA:1,_ZN20ARRAY_Iterators_TestC2Ev
FNDA:1,_ZN20ARRAY_Iterators_TestD0Ev
FNDA:1,_ZN20ARRAY_Iterators_TestD1Ev
FNDA:1,_ZN20ARRAY_Iterators_TestD2Ev
FNDA:1,_ZN24VECTOR_Constructors_Test8TestBodyEv
FNDA:1,_ZN24VECTOR_Constructors_TestC1Ev
FNDA:1,_ZN24VECTOR_Constructors_TestC2Ev
FNDA:1,_ZN24VECTOR_Constructors_TestD0Ev
FNDA:1,_ZN24VECTOR_Constructors_TestD1Ev
FNDA:1,_ZN24VECTOR_Constructors_TestD2Ev
FNDA:1,_ZN24ARRAY_FillSwapEqual_Test8TestBodyEv
FNDA:1,_ZN24ARRAY_FillSwapEqual_TestC1Ev
FNDA:1,_ZN24ARRAY_FillSwapEqual_TestC2Ev
FNDA:1,_ZN24ARRAY_FillSwapEqual_TestD0Ev
FNDA:1,_ZN24ARRAY_FillSwapEqual_TestD1Ev
FNDA:1,_ZN24ARRAY_FillSwapEqual_TestD2Ev
FNDA:1,_ZN28ARRAY_ConstructorAssign_Test8TestBodyEv
FNDA:1,_ZN28ARRAY_ConstructorAssign_TestC1Ev
FNDA:1,_ZN28ARRAY_ConstructorAssign_TestC2Ev
FNDA:1,_ZN28ARRAY_ConstructorAssign_TestD0Ev
FNDA:1,_ZN28ARRAY_ConstructorAssign_TestD1Ev
FNDA:1,_ZN28ARRAY_ConstructorAssign_TestD2Ev
FNDA:1,_ZN14STACK_All_Test8TestBodyEv
FNDA:1,_ZN14STACK_All_TestC1Ev
FNDA:1,_ZN14STACK_All_TestC2Ev
FNDA:1,_ZN14STACK_All_TestD0Ev
FNDA:1,_ZN14STACK_All_TestD1Ev
FNDA:1,_ZN14STACK_All_TestD2Ev
FNDA:1,_ZN22LIST_Constructors_Test8TestBodyEv
FNDA:1,_ZN22LIST_Constructors_TestC1Ev
FNDA:1,_ZN22LIST_Constructors_TestC2Ev
FNDA:1,_ZN22LIST_Constructors_TestD0Ev
FNDA:1,_ZN22LIST_Constructors_TestD1Ev
FNDA:1,_ZN22LIST_Constructors_TestD2Ev
FNDA:1,_ZN19LIST_FrontBack_Test8TestBodyEv
FNDA:1,_ZN19LIST_FrontBack_TestC1Ev
FNDA:1,_ZN19LIST_FrontBack_TestC2Ev
FNDA:1,_ZN19LIST_FrontBack_TestD0Ev
FNDA:1,_ZN19LIST_FrontBack_TestD1Ev
FNDA:1,_ZN19LIST_FrontBack_TestD2Ev
FNDA:1,_ZN22LIST_EmptyMaxSize_Test8TestBodyEv
FNDA:1,_ZN22LIST_EmptyMaxSize_TestC1Ev
FNDA:1,_ZN22LIST_EmptyMaxSize_TestC2Ev
FNDA:1,_ZN22LIST_EmptyMaxSize_TestD0Ev
FNDA:1,_ZN22LIST_EmptyMaxSize_TestD1Ev
FNDA:1,_ZN22LIST_EmptyMaxSize_TestD2Ev
FNDA:1,_ZN16LIST_Insert_Test8TestBodyEv
FNDA:1,_ZN16LIST_Insert_TestC1Ev
FNDA:1,_ZN16LIST_Insert_TestC2Ev
FNDA:1,_ZN16LIST_Insert_TestD0Ev
FNDA:1,_ZN16LIST_Insert_TestD1Ev
FNDA:1,_ZN16LIST_Insert_TestD2Ev
FNDA:1,_ZN21VECTOR_FrontBack_Test8TestBodyEv
FNDA:1,_ZN21VECTOR_FrontBack_TestC1Ev
FNDA:1,_ZN21VECTOR_FrontBack_TestC2Ev
FNDA:1,_ZN21VECTOR_FrontBack_TestD0Ev
FNDA:1,_ZN21VECTOR_FrontBack_TestD1Ev
FNDA:1,_ZN21VECTOR_FrontBack_TestD2Ev
FNDA:1,_ZN20LIST_OperatorEq_Test8TestBodyEv
FNDA:1,_ZN20LIST_OperatorEq_TestC1Ev
FNDA:1,_ZN20LIST_OperatorEq_TestC2Ev
FNDA:1,_ZN20LIST_OperatorEq_TestD0Ev
FNDA:1,_ZN20LIST_OperatorEq_TestD1Ev
FNDA:1,_ZN20LIST_OperatorEq_TestD2Ev
FNDA:1,_ZN15LIST_Erase_Test8TestBodyEv
FNDA:1,_ZN15LIST_Erase_TestC1Ev
FNDA:1,_ZN15LIST_Erase_TestC2Ev
FNDA:1,_ZN15LIST_Erase_TestD0Ev
FNDA:1,_ZN15LIST_Erase_TestD1Ev
FNDA:1,_ZN15LIST_Erase_TestD2Ev
FNDA:1,_ZN17LIST_PushPop_Test8TestBodyEv
FNDA:1,_ZN17LIST_PushPop_TestC1Ev
FNDA:1,_ZN17LIST_PushPop_TestC2Ev
FNDA:1,_ZN17LIST_PushPop_TestD0Ev
FNDA:1,_ZN17LIST_PushPop_TestD1Ev
FNDA:1,_ZN17LIST_PushPop_TestD2Ev
FNF:239
FNH:239
DA:5,7
DA:6,1
DA:7,1
DA:8,1
DA:10,1
DA:11,1
DA:12,1
DA:14,1
DA:15,1
DA:16,1
DA:18,1
DA:19,1
DA:20,1
DA:22,1
DA:23,1
DA:24,1
DA:26,1
DA:27,1
DA:28,1
DA:29,1
DA:31,1
DA:32,1
DA:33,1
DA:34,1
DA:35,1
DA:36,1
DA:38,1
DA:39,1
DA:40,1
DA:42,1
DA:43,1
DA:44,1
DA:46,1
DA:47,1
DA:48,1
DA:50,1
DA:51,1
DA:52,1
DA:54,1
DA:55,1
DA:56,1
DA:58,1
DA:59,1
DA:60,1
DA:62,1
DA:63,1
DA:64,1
DA:65,1
DA:67,1
DA:68,1
DA:69,1
DA:70,1
DA:71,1
DA:72,1
DA:74,1
DA:75,1
DA:76,1
DA:77,1
DA:79,7
DA:80,1
DA:81,1
DA:82,1
DA:83,1
DA:85,1
DA:86,1
DA:87,1
DA:88,1
DA:89,1
DA:90,1
DA:91,1
DA:93,1
DA:94,1
DA:95,1
DA:96,1
DA:97,1
DA:98,1
DA:100,1
DA:101,1
DA:102,1
DA:103,1
DA:104,1
DA:105,1
DA:106,1
DA:107,1
DA:108,1
DA:109,1
DA:111,7
DA:112,1
DA:113,1
DA:114,1
DA:115,1
DA:117,1
DA:118,1
DA:119,1
DA:121,1
DA:122,1
DA:123,1
DA:124,1
DA:126,1
DA:127,1
DA:128,1
DA:129,1
DA:131,7
DA:132,1
DA:133,1
DA:134,1
DA:135,1
DA:136,1
DA:137,1
DA:138,1
DA:139,1
DA:140,1
DA:141,1
DA:142,3
DA:143,2
DA:144,2
DA:145,2
DA:146,1
DA:147,1
DA:148,1
DA:149,1
DA:150,1
DA:151,1
DA:152,1
DA:153,1
DA:154,1
DA:155,1
DA:156,1
DA:157,1
DA:158,1
DA:159,1
DA:160,1
DA:161,1
DA:162,1
DA:164,1
DA:165,1
DA:166,1
DA:167,1
DA:168,1
DA:169,1
DA:170,1
DA:171,1
DA:172,1
DA:173,1
DA:174,1
DA:175,3
DA:176,2
DA:177,2
DA:178,2
DA:179,1
DA:180,1
DA:181,1
DA:182,1
DA:183,1
DA:184,1
DA:185,1
DA:186,1
DA:187,1
DA:189,1
DA:190,1
DA:191,1
DA:192,1
DA:193,1
DA:194,1
DA:195,1
DA:196,1
DA:198,1
DA:199,1
DA:200,1
DA:201,1
DA:202,1
DA:203,1
DA:204,1
DA:205,1
DA:206,1
DA:208,7
DA:209,1
DA:210,1
DA:211,1
DA:212,1
DA:213,2
DA:214,2
DA:215,1
DA:216,1
DA:217,1
DA:218,1
DA:219,1
DA:220,1
DA:221,1
DA:222,1
DA:224,1
DA:225,1
DA:226,1
DA:227,1
DA:228,1
DA:229,1
DA:230,1
DA:231,1
DA:232,1
DA:233,1
DA:234,1
DA:235,1
DA:236,1
DA:237,1
DA:238,1
DA:239,1
DA:240,3
DA:242,7
DA:243,1
DA:244,1
DA:245,1
DA:247,1
DA:248,1
DA:249,1
DA:250,1
DA:251,1
DA:253,1
DA:254,1
DA:255,1
DA:257,1
DA:258,1
DA:259,1
DA:260,1
DA:261,1
DA:262,1
DA:264,7
DA:265,1
DA:266,1
DA:267,1
DA:268,1
DA:269,1
DA:270,1
DA:271,1
DA:272,1
DA:274,1
DA:275,1
DA:276,2
DA:278,1
DA:279,1
DA:280,1
DA:281,1
DA:282,1
DA:283,1
DA:284,1
DA:285,1
DA:287,1
DA:288,1
DA:289,1
DA:290,1
DA:291,1
DA:292,1
DA:293,1
DA:294,1
DA:296,1
DA:297,1
DA:298,1
DA:299,1
DA:300,1
DA:301,1
DA:302,1
DA:303,1
DA:305,1
DA:306,1
DA:307,1
DA:308,1
DA:309,1
DA:310,1
DA:311,1
DA:312,1
DA:313,2
DA:315,7
DA:316,1
DA:317,1
DA:318,1
DA:319,1
DA:320,1
DA:322,1
DA:323,1
DA:324,1
DA:325,1
DA:326,1
DA:328,1
DA:329,1
DA:330,1
DA:331,1
DA:332,1
DA:333,1
DA:335,7
DA:336,1
DA:337,1
DA:338,1
DA:339,1
DA:340,1
DA:341,1
DA:342,1
DA:343,1
DA:344,1
DA:345,1
DA:346,1
DA:347,1
DA:348,1
DA:349,1
DA:350,1
DA:351,1
DA:352,1
DA:353,1
DA:354,1
DA:355,2
DA:357,1
DA:358,1
DA:359,1
DA:360,1
DA:361,1
DA:362,1
DA:363,1
DA:364,1
DA:365,1
DA:366,1
DA:367,1
DA:368,1
DA:369,1
DA:370,1
DA:371,1
DA:372,1
DA:373,1
DA:374,1
DA:375,1
DA:376,1
DA:377,3
DA:379,7
DA:380,1
DA:381,1
DA:382,1
DA:383,1
DA:384,1
DA:385,1
DA:387,1
DA:388,1
DA:389,1
DA:390,1
DA:391,1
DA:392,1
DA:394,1
DA:395,1
DA:396,1
DA:397,1
DA:398,1
DA:399,1
DA:401,1
DA:402,1
DA:403,1
DA:404,1
DA:405,1
DA:406,1
DA:407,1
DA:409,7
DA:410,1
DA:411,1
DA:412,1
DA:413,1
DA:414,1
DA:415,1
DA:416,1
DA:417,1
DA:419,1
DA:420,1
DA:421,1
DA:422,1
DA:423,1
DA:424,1
DA:425,1
DA:426,1
DA:427,1
DA:429,7
DA:430,1
DA:431,1
DA:432,1
DA:433,1
DA:435,1
DA:436,1
DA:437,1
DA:438,1
DA:439,1
DA:440,1
DA:441,1
DA:442,1
DA:444,1
DA:445,1
DA:446,1
DA:447,1
DA:449,1
DA:450,1
DA:451,1
DA:452,1
DA:453,1
DA:454,1
DA:455,1
DA:456,1
DA:457,1
DA:459,7
DA:460,1
DA:461,1
DA:462,1
DA:463,1
DA:464,2
DA:465,1
DA:467,1
DA:468,1
DA:469,1
DA:470,1
DA:471,1
DA:472,1
DA:473,1
DA:474,1
DA:475,2
DA:476,1
DA:477,1
DA:478,1
DA:479,1
DA:481,1
DA:482,1
DA:483,1
DA:484,1
DA:485,2
DA:486,1
DA:488,1
DA:489,1
DA:490,1
DA:491,1
DA:492,1
DA:493,1
DA:494,1
DA:495,1
DA:496,2
DA:497,5
DA:499,7
DA:500,1
DA:501,1
DA:502,1
DA:503,1
DA:504,1
DA:505,1
DA:506,1
DA:508,7
DA:509,1
DA:510,1
DA:511,1
DA:512,1
DA:513,1
DA:515,1
DA:516,1
DA:517,1
DA:518,1
DA:519,1
DA:521,1
DA:522,1
DA:523,1
DA:524,1
DA:525,1
DA:527,1
DA:528,1
DA:529,1
DA:530,1
DA:531,1
DA:532,1
DA:534,7
DA:535,1
DA:536,1
DA:537,1
DA:538,1
DA:539,1
DA:541,1
DA:542,1
DA:543,1
DA:544,1
DA:545,1
DA:547,1
DA:548,1
DA:549,1
DA:550,1
DA:551,1
DA:553,1
DA:554,1
DA:555,1
DA:556,1
DA:557,1
DA:558,1
DA:560,7
DA:561,1
DA:562,1
DA:563,1
DA:564,1
DA:566,1
DA:567,1
DA:568,1
DA:569,1
DA:570,4
DA:571,3
DA:572,3
DA:573,3
DA:574,4
DA:575,3
DA:576,3
DA:577,3
DA:578,1
DA:579,1
DA:580,1
DA:581,4
DA:582,3
DA:583,3
DA:584,3
DA:585,1
DA:586,1
DA:587,1
DA:589,1
DA:590,1
DA:591,1
DA:592,1
DA:593,1
DA:595,1
DA:596,1
DA:597,1
DA:598,1
DA:599,1
DA:600,1
DA:601,1
DA:602,1
DA:603,1
DA:604,1
DA:605,1
DA:606,1
DA:608,1
DA:609,1
DA:610,1
DA:611,1
DA:612,1
DA:613,1
DA:614,1
DA:615,1
DA:616,1
DA:618,1
DA:619,1
DA:620,1
DA:621,1
DA:622,1
DA:624,1
DA:625,1
DA:626,1
DA:627,1
DA:628,1
DA:629,1
DA:630,1
DA:631,1
DA:632,1
DA:634,7
DA:635,1
DA:636,1
DA:637,1
DA:639,1
DA:640,1
DA:641,1
DA:643,1
DA:644,1
DA:645,1
DA:647,1
DA:648,1
DA:649,1
DA:651,1
DA:652,1
DA:653,1
DA:655,1
DA:656,1
DA:657,1
DA:658,1
DA:660,1
DA:661,1
DA:662,1
DA:663,1
DA:664,1
DA:665,1
DA:667,1
DA:668,1
DA:669,1
DA:671,1
DA:672,1
DA:673,1
DA:675,1
DA:676,1
DA:677,1
DA:679,1
DA:680,1
DA:681,1
DA:683,1
DA:684,1
DA:685,1
DA:687,1
DA:688,1
DA:689,1
DA:691,1
DA:692,1
DA:693,1
DA:694,1
DA:696,1
DA:697,1
DA:698,1
DA:699,1
DA:700,1
DA:701,1
DA:703,1
DA:704,1
DA:705,1
DA:706,1
DA:708,7
DA:709,1
DA:710,1
DA:711,1
DA:712,1
DA:714,1
DA:715,1
DA:716,1
DA:717,1
DA:718,1
DA:719,1
DA:720,1
DA:722,1
DA:723,1
DA:724,1
DA:725,1
DA:727,1
DA:728,1
DA:729,1
DA:730,1
DA:731,1
DA:732,1
DA:733,1
DA:734,1
DA:736,7
DA:737,1
DA:738,1
DA:739,1
DA:740,1
DA:742,1
DA:743,1
DA:744,1
DA:746,1
DA:747,1
DA:748,1
DA:749,1
DA:751,1
DA:752,1
DA:753,1
DA:754,1
DA:756,7
DA:757,1
DA:758,1
DA:759,1
DA:760,1
DA:761,1
DA:762,1
DA:763,1
DA:764,3
DA:765,2
DA:766,2
DA:767,2
DA:768,1
DA:769,1
DA:770,1
DA:771,1
DA:772,1
DA:773,1
DA:774,1
DA:775,1
DA:776,1
DA:777,1
DA:778,1
DA:779,1
DA:780,1
DA:781,1
DA:782,1
DA:784,1
DA:785,1
DA:786,1
DA:787,1
DA:788,1
DA:789,1
DA:790,1
DA:791,1
DA:792,1
DA:793,3
DA:794,2
DA:795,2
DA:796,2
DA:797,1
DA:798,1
DA:799,1
DA:800,1
DA:801,1
DA:802,1
DA:803,1
DA:804,1
DA:805,1
DA:806,1
DA:808,7
DA:809,1
DA:810,1
DA:811,1
DA:812,1
DA:813,1
DA:814,1
DA:815,1
DA:817,1
DA:818,1
DA:819,1
DA:820,1
DA:821,1
DA:822,1
DA:823,1
DA:824,1
DA:826,1
DA:827,1
DA:828,1
DA:829,1
DA:830,1
DA:831,1
DA:832,1
DA:834,1
DA:835,1
DA:836,1
DA:837,1
DA:838,1
DA:839,1
DA:840,1
DA:841,1
DA:843,1
DA:844,1
DA:845,1
DA:846,1
DA:847,1
DA:848,1
DA:849,1
DA:851,1
DA:852,1
DA:853,1
DA:854,1
DA:855,1
DA:856,1
DA:857,1
DA:858,1
DA:860,1
DA:861,1
DA:862,1
DA:863,1
DA:864,1
DA:865,1
DA:866,1
DA:868,1
DA:869,1
DA:870,1
DA:871,1
DA:872,1
DA:873,1
DA:874,1
DA:875,1
DA:877,1
DA:878,1
DA:879,1
DA:880,1
DA:881,1
DA:882,1
DA:883,1
DA:884,1
DA:886,7
DA:887,1
DA:888,1
DA:889,1
DA:890,1
DA:891,1
DA:892,1
DA:893,1
DA:894,3
DA:895,2
DA:896,2
DA:897,2
DA:898,1
DA:899,1
DA:900,1
DA:901,1
DA:902,1
DA:903,1
DA:904,1
DA:905,1
DA:906,1
DA:908,1
DA:909,1
DA:910,1
DA:911,1
DA:912,1
DA:913,1
DA:914,1
DA:915,1
DA:916,1
DA:917,3
DA:918,2
DA:919,2
DA:920,2
DA:921,1
DA:922,1
DA:923,1
DA:924,1
DA:925,1
DA:926,1
DA:928,1
DA:929,1
DA:930,1
DA:931,1
DA:932,1
DA:933,1
DA:934,6
DA:935,5
DA:936,5
DA:937,5
DA:938,5
DA:939,5
DA:940,1
DA:941,1
DA:942,1
DA:943,1
DA:944,1
DA:946,7
DA:947,1
DA:948,1
DA:949,1
DA:950,1
DA:951,1
DA:952,1
DA:953,1
DA:954,1
DA:955,1
DA:956,1
DA:957,1
DA:958,1
DA:959,1
DA:960,1
DA:961,1
DA:962,1
DA:963,1
DA:964,1
DA:965,4
DA:966,3
DA:967,3
DA:968,3
DA:969,3
DA:970,3
DA:971,1
DA:973,1
DA:974,1
DA:975,1
DA:976,1
DA:977,1
DA:978,1
DA:979,1
DA:980,1
DA:981,1
DA:982,1
DA:983,1
DA:984,1
DA:985,1
DA:986,1
DA:987,1
DA:988,1
DA:989,1
DA:990,1
DA:991,1
DA:992,1
DA:993,4
DA:994,3
DA:995,3
DA:996,3
DA:997,3
DA:998,3
DA:999,1
DA:1000,1
DA:1002,7
DA:1003,1
DA:1004,1
DA:1005,1
DA:1006,1
DA:1007,1
DA:1008,1
DA:1009,1
DA:1010,1
DA:1012,1
DA:1013,1
DA:1014,1
DA:1015,1
DA:1016,1
DA:1017,1
DA:1018,1
DA:1019,1
DA:1021,1
DA:1022,1
DA:1023,1
DA:1024,1
DA:1025,1
DA:1026,1
DA:1027,1
DA:1028,1
DA:1030,1
DA:1031,1
DA:1032,1
DA:1033,1
DA:1034,1
DA:1035,1
DA:1036,1
DA:1037,1
DA:1039,1
DA:1040,1
DA:1041,1
DA:1042,1
DA:1043,1
DA:1044,1
DA:1045,1
DA:1046,1
DA:1048,1
DA:1049,1
DA:1050,1
DA:1051,1
DA:1052,1
DA:1053,1
DA:1054,1
DA:1055,1
DA:1056,1
DA:1058,7
DA:1059,1
DA:1060,1
DA:1061,1
DA:1062,1
DA:1063,1
DA:1064,1
DA:1065,1
DA:1066,1
DA:1067,1
DA:1068,1
DA:1069,1
DA:1070,1
DA:1071,1
DA:1072,1
DA:1073,1
DA:1074,1
DA:1075,1
DA:1076,1
DA:1077,1
DA:1078,1
DA:1080,1
DA:1081,1
DA:1082,1
DA:1083,1
DA:1084,1
DA:1085,1
DA:1086,1
DA:1087,1
DA:1088,1
DA:1089,1
DA:1090,1
DA:1091,1
DA:1092,1
DA:1093,1
DA:1094,1
DA:1095,1
DA:1096,1
DA:1097,1
DA:1098,1
DA:1099,1
DA:1100,1
DA:1102,7
DA:1103,1
DA:1104,1
DA:1105,1
DA:1106,1
DA:1107,1
DA:1108,1
DA:1109,1
DA:1110,1
DA:1111,1
DA:1112,1
DA:1113,1
DA:1114,1
DA:1115,1
DA:1116,1
DA:1117,1
DA:1119,1
DA:1120,1
DA:1121,1
DA:1122,1
DA:1123,1
DA:1124,1
DA:1125,1
DA:1126,1
DA:1127,1
DA:1128,1
DA:1129,1
DA:1130,1
DA:1131,1
DA:1132,1
DA:1133,1
DA:1134,1
DA:1136,7
DA:1137,1
DA:1138,1
DA:1139,1
DA:1140,1
DA:1141,1
DA:1142,1
DA:1143,1
DA:1144,1
DA:1145,1
DA:1146,1
DA:1147,1
DA:1148,1
DA:1149,1
DA:1150,1
DA:1151,1
DA:1152,1
DA:1153,1
DA:1154,1
DA:1156,1
DA:1157,1
DA:1158,1
DA:1159,1
DA:1160,1
DA:1161,1
DA:1162,1
DA:1163,1
DA:1164,1
DA:1165,1
DA:1166,1
DA:1167,1
DA:1168,1
DA:1169,1
DA:1170,1
DA:1171,1
DA:1172,1
DA:1173,1
DA:1174,1
DA:1176,7
DA:1177,1
DA:1178,1
DA:1179,1
DA:1180,1
DA:1181,1
DA:1182,1
DA:1183,1
DA:1184,1
DA:1185,1
DA:1186,1
DA:1187,1
DA:1188,1
DA:1189,1
DA:1190,1
DA:1191,1
DA:1193,1
DA:1194,1
DA:1195,1
DA:1196,1
DA:1197,1
DA:1198,1
DA:1199,1
DA:1200,1
DA:1201,1
DA:1202,1
DA:1203,1
DA:1204,1
DA:1205,1
DA:1206,1
DA:1207,1
DA:1208,1
DA:1210,7
DA:1211,1
DA:1212,1
DA:1213,1
DA:1214,1
DA:1215,1
DA:1216,1
DA:1217,1
DA:1218,1
DA:1220,1
DA:1221,1
DA:1222,1
DA:1223,1
DA:1224,1
DA:1225,1
DA:1227,1
DA:1228,1
DA:1229,1
DA:1230,1
DA:1231,1
DA:1232,1
DA:1234,1
DA:1235,1
DA:1236,1
DA:1237,1
DA:1238,1
DA:1239,1
DA:1241,1
DA:1242,1
DA:1243,1
DA:1244,1
DA:1245,1
DA:1246,1
DA:1247,1
DA:1249,7
DA:1250,1
DA:1251,1
DA:1252,1
DA:1253,1
DA:1254,6
DA:1255,5
DA:1256,5
DA:1257,5
DA:1258,1
DA:1259,1
DA:1260,1
DA:1262,1
DA:1263,1
DA:1264,1
DA:1265,1
DA:1266,1
DA:1267,1
DA:1268,1
DA:1270,1
DA:1271,1
DA:1272,1
DA:1273,1
DA:1274,6
DA:1275,5
DA:1276,5
DA:1277,5
DA:1278,1
DA:1279,1
DA:1280,1
DA:1282,1
DA:1283,1
DA:1284,1
DA:1285,1
DA:1286,1
DA:1287,1
DA:1288,6
DA:1289,5
DA:1290,5
DA:1291,5
DA:1292,1
DA:1293,1
DA:1294,1
DA:1295,1
DA:1297,1
DA:1298,1
DA:1299,1
DA:1300,1
DA:1301,1
DA:1302,1
DA:1303,1
DA:1304,1
DA:1305,1
DA:1306,1
DA:1307,1
DA:1309,7
DA:1310,1
DA:1311,1
DA:1312,1
DA:1313,1
DA:1314,1
DA:1315,1
DA:1316,6
DA:1317,5
DA:1318,5
DA:1320,5
DA:1321,2
DA:1322,2
DA:1323,2
DA:1324,5
DA:1325,1
DA:1326,1
DA:1327,1
DA:1329,1
DA:1330,1
DA:1331,1
DA:1332,1
DA:1333,1
DA:1334,1
DA:1335,1
DA:1336,1
DA:1337,1
DA:1339,1
DA:1340,1
DA:1341,1
DA:1342,1
DA:1343,1
DA:1344,1
DA:1345,6
DA:1346,5
DA:1347,5
DA:1349,5
DA:1350,2
DA:1351,2
DA:1352,2
DA:1353,5
DA:1354,1
DA:1355,1
DA:1356,1
DA:1358,1
DA:1359,1
DA:1360,1
DA:1361,1
DA:1362,1
DA:1363,1
DA:1364,1
DA:1365,1
DA:1366,6
DA:1367,5
DA:1368,5
DA:1370,5
DA:1371,2
DA:1372,2
DA:1373,2
DA:1374,5
DA:1375,1
DA:1376,1
DA:1377,1
DA:1378,1
DA:1380,1
DA:1381,1
DA:1382,1
DA:1383,1
DA:1384,1
DA:1385,1
DA:1386,1
DA:1387,1
DA:1388,1
DA:1389,1
DA:1390,1
DA:1391,1
DA:1392,1
DA:1394,7
DA:1395,1
DA:1396,1
DA:1397,1
DA:1398,1
DA:1399,1
DA:1400,1
DA:1401,1
DA:1402,1
DA:1404,1
DA:1405,1
DA:1406,1
DA:1407,1
DA:1408,1
DA:1409,1
DA:1411,1
DA:1412,1
DA:1413,1
DA:1414,1
DA:1415,1
DA:1416,1
DA:1417,1
DA:1418,1
DA:1419,1
DA:1421,7
DA:1422,1
DA:1423,1
DA:1424,1
DA:1425,1
DA:1426,1
DA:1428,1
DA:1429,1
DA:1430,1
DA:1431,1
DA:1432,1
DA:1434,1
DA:1435,1
DA:1436,1
DA:1437,1
DA:1438,1
DA:1440,1
DA:1441,1
DA:1442,1
DA:1443,1
DA:1444,1
DA:1445,1
DA:1447,1
DA:1448,1
DA:1449,1
LF:1291
LH:1291
end_of_record
TN:
SF:/Users/nikita/Projects/GitHub/s21_Containers/src/test/test.h
FN:102,112,_ZeqIN3s215arrayIiLm1EEENSt3__15arrayIiLm1EEELm2EEbRKNS1_IT_XT1_EEERKNS4_IT0_XT1_EEE
FN:102,112,_ZeqIN3s215arrayIiLm1EEENSt3__15arrayIiLm1EEELm3EEbRKNS1_IT_XT1_EEERKNS4_IT0_XT1_EEE
FN:102,112,_ZeqIiiLm1EEbRKN3s215arrayIT_XT1_EEERKNSt3__15arrayIT0_XT1_EEE
FN:102,112,_ZeqIiiLm2EEbRKN3s215arrayIT_XT1_EEERKNSt3__15arrayIT0_XT1_EEE
FN:102,112,_ZeqIiiLm3EEbRKN3s215arrayIT_XT1_EEERKNSt3__15arrayIT0_XT1_EEE
FN:116,118,_ZneIiiLm1EEbRKN3s215arrayIT_XT1_EEERKNSt3__15arrayIT0_XT1_EEE
FN:37,58,_ZeqIN3s214listIiEENSt3__14listIiNS3_9allocatorIiEEEEEbRKNS1_IT_EERKNS4_IT0_NS5_ISC_EEEE
FN:37,58,_ZeqIiiEbRKN3s214listIT_EERKNSt3__14listIT0_NS6_9allocatorIS8_EEEE
FN:62,63,_ZneIiiEbRKN3s214listIT_EERKNSt3__14listIT0_NS6_9allocatorIS8_EEEE
FN:67,94,_ZeqIN3s216vectorIiEENSt3__16vectorIiNS3_9allocatorIiEEEEEbRKNS1_IT_EERKNS4_IT0_NS5_ISC_EEEE
FN:67,94,_ZeqIiiEbRKN3s216vectorIT_EERKNSt3__16vectorIT0_NS6_9allocatorIS8_EEEE
FN:97,98,_ZneIiiEbRKN3s216vectorIT_EERKNSt3__16vectorIT0_NS6_9allocatorIS8_EEEE
FNDA:1,_ZeqIN3s215arrayIiLm1EEENSt3__15arrayIiLm1EEELm2EEbRKNS1_IT_XT1_EEERKNS4_IT0_XT1_EEE
FNDA:2,_ZeqIN3s215arrayIiLm1EEENSt3__15arrayIiLm1EEELm3EEbRKNS1_IT_XT1_EEERKNS4_IT0_XT1_EEE
FNDA:17,_ZeqIiiLm1EEbRKN3s215arrayIT_XT1_EEERKNSt3__15arrayIT0_XT1_EEE
FNDA:2,_ZeqIiiLm2EEbRKN3s215arrayIT_XT1_EEERKNSt3__15arrayIT0_XT1_EEE
FNDA:4,_ZeqIiiLm3EEbRKN3s215arrayIT_XT1_EEERKNSt3__15arrayIT0_XT1_EEE
FNDA:8,_ZneIiiLm1EEbRKN3s215arrayIT_XT1_EEERKNSt3__15arrayIT0_XT1_EEE
FNDA:38,_ZeqIN3s214listIiEENSt3__14listIiNS3_9allocatorIiEEEEEbRKNS1_IT_EERKNS4_IT0_NS5_ISC_EEEE
FNDA:214,_ZeqIiiEbRKN3s214listIT_EERKNSt3__14listIT0_NS6_9allocatorIS8_EEEE
FNDA:117,_ZneIiiEbRKN3s214listIT_EERKNSt3__14listIT0_NS6_9allocatorIS8_EEEE
FNDA:23,_ZeqIN3s216vectorIiEENSt3__16vectorIiNS3_9allocatorIiEEEEEbRKNS1_IT_EERKNS4_IT0_NS5_ISC_EEEE
FNDA:142,_ZeqIiiEbRKN3s216vectorIT_EERKNSt3__16vectorIT0_NS6_9allocatorIS8_EEEE
FNDA:104,_ZneIiiEbRKN3s216vectorIT_EERKNSt3__16vectorIT0_NS6_9allocatorIS8_EEEE
FNF:12
FNH:12
DA:37,252
DA:38,252
DA:40,252
DA:41,252
DA:42,252
DA:43,252
DA:45,910
DA:46,658
DA:47,0
DA:48,0
DA:50,658
DA:51,658
DA:54,252
DA:55,0
DA:56,0
DA:58,252
DA:62,117
DA:63,117
DA:67,165
DA:68,165
DA:70,165
DA:71,165
DA:72,165
DA:73,165
DA:75,581
DA:76,416
DA:77,0
DA:78,0
DA:80,416
DA:81,416
DA:84,165
DA:85,0
DA:86,0
DA:88,165
DA:89,165
DA:90,0
DA:91,0
DA:93,165
DA:94,165
DA:97,104
DA:98,104
DA:102,26
DA:104,26
DA:106,67
DA:107,41
DA:108,0
DA:109,0
DA:110,41
DA:112,26
DA:116,8
DA:118,8
LF:51
LH:39
end_of_record
TN:
SF:/Users/nikita/Projects/GitHub/s21_Containers/src/vector/s21_vector.tpp
FN:103,_ZN3s216vectorIiEaSEOS1_
FN:12,_ZN3s216vectorINS0_IiEEEC1ESt16initializer_listIS1_E
FN:12,_ZN3s216vectorINS0_IiEEEC2ESt16initializer_listIS1_E
FN:12,_ZN3s216vectorIiEC1ESt16initializer_listIiE
FN:12,_ZN3s216vectorIiEC2ESt16initializer_listIiE
FN:121,_ZN3s216vectorIiEaSESt16initializer_listIiE
FN:153,_ZN3s216vectorINS0_IiEEE2atEm
FN:153,_ZN3s216vectorIiE2atEm
FN:162,_ZNK3s216vectorINS0_IiEEE2atEm
FN:162,_ZNK3s216vectorIiE2atEm
FN:171,_ZN3s216vectorINS0_IiEEEixEm
FN:171,_ZN3s216vectorIiEixEm
FN:176,_ZNK3s216vectorINS0_IiEEEixEm
FN:176,_ZNK3s216vectorIiEixEm
FN:181,_ZN3s216vectorINS0_IiEEE5frontEv
FN:181,_ZN3s216vectorIiE5frontEv
FN:186,_ZNK3s216vectorINS0_IiEEE5frontEv
FN:186,_ZNK3s216vectorIiE5frontEv
FN:191,_ZN3s216vectorINS0_IiEEE4backEv
FN:191,_ZN3s216vectorIiE4backEv
FN:196,_ZNK3s216vectorINS0_IiEEE4backEv
FN:196,_ZNK3s216vectorIiE4backEv
FN:201,_ZN3s216vectorINS0_IiEEE4dataEv
FN:201,_ZN3s216vectorIiE4dataEv
FN:206,_ZNK3s216vectorINS0_IiEEE4dataEv
FN:206,_ZNK3s216vectorIiE4dataEv
FN:211,_ZNK3s216vectorINS0_IiEEE5emptyEv
FN:211,_ZNK3s216vectorIiE5emptyEv
FN:216,_ZNK3s216vectorINS0_IiEEE4sizeEv
FN:216,_ZNK3s216vectorIiE4sizeEv
FN:221,_ZNK3s216vectorINS0_IiEEE8max_sizeEv
FN:221,_ZNK3s216vectorIiE8max_sizeEv
FN:226,_ZN3s216vectorINS0_IiEEE7reserveEm
FN:226,_ZN3s216vectorIiE7reserveEm
FN:246,_ZNK3s216vectorINS0_IiEEE8capacityEv
FN:246,_ZNK3s216vectorIiE8capacityEv
FN:251,_ZN3s216vectorINS0_IiEEE13shrink_to_fitEv
FN:251,_ZN3s216vectorIiE13shrink_to_fitEv
FN:267,_ZN3s216vectorINS0_IiEEE6insertENS_21ConstSequenceIteratorIS1_EERKS1_
FN:267,_ZN3s216vectorIiE6insertENS_21ConstSequenceIteratorIiEERKi
FN:273,_ZN3s216vectorINS0_IiEEE6insertENS_21ConstSequenceIteratorIS1_EEOS1_
FN:273,_ZN3s216vectorIiE6insertENS_21ConstSequenceIteratorIiEEOi
FN:325,_ZN3s216vectorINS0_IiEEE6insertENS_21ConstSequenceIteratorIS1_EEmRKS1_
FN:325,_ZN3s216vectorIiE6insertENS_21ConstSequenceIteratorIiEEmRKi
FN:34,_ZN3s216vectorINS0_IiEEEC1ERKS2_
FN:34,_ZN3s216vectorINS0_IiEEEC2ERKS2_
FN:34,_ZN3s216vectorIiEC1ERKS1_
FN:34,_ZN3s216vectorIiEC2ERKS1_
FN:403,_ZN3s216vectorIiE5eraseENS_21ConstSequenceIteratorIiEE
FN:408,_ZN3s216vectorIiE5eraseENS_21ConstSequenceIteratorIiEES3_
FN:439,_ZN3s216vectorIiE9push_backERKi
FN:472,_ZN3s216vectorIiE9push_backEOi
FN:496,_ZN3s216vectorINS0_IiEEE5clearEv
FN:496,_ZN3s216vectorIiE5clearEv
FN:504,_ZN3s216vectorIiE8pop_backEv
FN:512,_ZN3s216vectorINS0_IiEEE6resizeEm
FN:512,_ZN3s216vectorIiE6resizeEm
FN:517,_ZN3s216vectorINS0_IiEEE6resizeEmRKS1_
FN:517,_ZN3s216vectorIiE6resizeEmRKi
FN:55,_ZN3s216vectorINS0_IiEEEC1EOS2_
FN:55,_ZN3s216vectorINS0_IiEEEC2EOS2_
FN:55,_ZN3s216vectorIiEC1EOS1_
FN:55,_ZN3s216vectorIiEC2EOS1_
FN:574,_ZN3s216vectorIiE4swapERS1_
FN:581,_ZN3s216vectorINS0_IiEEE5beginEv
FN:581,_ZN3s216vectorIiE5beginEv
FN:586,_ZN3s216vectorINS0_IiEEE3endEv
FN:586,_ZN3s216vectorIiE3endEv
FN:591,_ZNK3s216vectorINS0_IiEEE6cbeginEv
FN:591,_ZNK3s216vectorIiE6cbeginEv
FN:596,_ZNK3s216vectorINS0_IiEEE4cendEv
FN:596,_ZNK3s216vectorIiE4cendEv
FN:601,_ZN3s21eqINS_6vectorIiEEEEbRKNS1_IT_EES6_
FN:601,_ZN3s21eqIiEEbRKNS_6vectorIT_EES5_
FN:625,_ZN3s21neIiEEbRKNS_6vectorIT_EES5_
FN:63,_ZN3s216vectorINS0_IiEEED1Ev
FN:63,_ZN3s216vectorINS0_IiEEED2Ev
FN:63,_ZN3s216vectorIiED1Ev
FN:63,_ZN3s216vectorIiED2Ev
FN:69,_ZN3s216vectorIiEaSERKS1_
FN:9,_ZN3s216vectorINS0_IiEEEC1Ev
FN:9,_ZN3s216vectorINS0_IiEEEC2Ev
FN:9,_ZN3s216vectorIiEC1Ev
FN:9,_ZN3s216vectorIiEC2Ev
FNDA:9,_ZN3s216vectorIiEaSEOS1_
FNDA:19,_ZN3s216vectorINS0_IiEEEC1ESt16initializer_listIS1_E
FNDA:19,_ZN3s216vectorINS0_IiEEEC2ESt16initializer_listIS1_E
FNDA:89,_ZN3s216vectorIiEC1ESt16initializer_listIiE
FNDA:89,_ZN3s216vectorIiEC2ESt16initializer_listIiE
FNDA:3,_ZN3s216vectorIiEaSESt16initializer_listIiE
FNDA:2,_ZN3s216vectorINS0_IiEEE2atEm
FNDA:3,_ZN3s216vectorIiE2atEm
FNDA:1,_ZNK3s216vectorINS0_IiEEE2atEm
FNDA:2,_ZNK3s216vectorIiE2atEm
FNDA:3,_ZN3s216vectorINS0_IiEEEixEm
FNDA:3,_ZN3s216vectorIiEixEm
FNDA:2,_ZNK3s216vectorINS0_IiEEEixEm
FNDA:2,_ZNK3s216vectorIiEixEm
FNDA:1,_ZN3s216vectorINS0_IiEEE5frontEv
FNDA:1,_ZN3s216vectorIiE5frontEv
FNDA:1,_ZNK3s216vectorINS0_IiEEE5frontEv
FNDA:1,_ZNK3s216vectorIiE5frontEv
FNDA:1,_ZN3s216vectorINS0_IiEEE4backEv
FNDA:11,_ZN3s216vectorIiE4backEv
FNDA:1,_ZNK3s216vectorINS0_IiEEE4backEv
FNDA:2,_ZNK3s216vectorIiE4backEv
FNDA:1,_ZN3s216vectorINS0_IiEEE4dataEv
FNDA:1,_ZN3s216vectorIiE4dataEv
FNDA:1,_ZNK3s216vectorINS0_IiEEE4dataEv
FNDA:1,_ZNK3s216vectorIiE4dataEv
FNDA:105,_ZNK3s216vectorINS0_IiEEE5emptyEv
FNDA:812,_ZNK3s216vectorIiE5emptyEv
FNDA:31,_ZNK3s216vectorINS0_IiEEE4sizeEv
FNDA:293,_ZNK3s216vectorIiE4sizeEv
FNDA:12,_ZNK3s216vectorINS0_IiEEE8max_sizeEv
FNDA:13,_ZNK3s216vectorIiE8max_sizeEv
FNDA:4,_ZN3s216vectorINS0_IiEEE7reserveEm
FNDA:4,_ZN3s216vectorIiE7reserveEm
FNDA:27,_ZNK3s216vectorINS0_IiEEE8capacityEv
FNDA:166,_ZNK3s216vectorIiE8capacityEv
FNDA:3,_ZN3s216vectorINS0_IiEEE13shrink_to_fitEv
FNDA:2,_ZN3s216vectorIiE13shrink_to_fitEv
FNDA:1,_ZN3s216vectorINS0_IiEEE6insertENS_21ConstSequenceIteratorIS1_EERKS1_
FNDA:2,_ZN3s216vectorIiE6insertENS_21ConstSequenceIteratorIiEERKi
FNDA:2,_ZN3s216vectorINS0_IiEEE6insertENS_21ConstSequenceIteratorIS1_EEOS1_
FNDA:2,_ZN3s216vectorIiE6insertENS_21ConstSequenceIteratorIiEEOi
FNDA:1,_ZN3s216vectorINS0_IiEEE6insertENS_21ConstSequenceIteratorIS1_EEmRKS1_
FNDA:4,_ZN3s216vectorIiE6insertENS_21ConstSequenceIteratorIiEEmRKi
FNDA:2,_ZN3s216vectorINS0_IiEEEC1ERKS2_
FNDA:2,_ZN3s216vectorINS0_IiEEEC2ERKS2_
FNDA:115,_ZN3s216vectorIiEC1ERKS1_
FNDA:115,_ZN3s216vectorIiEC2ERKS1_
FNDA:1,_ZN3s216vectorIiE5eraseENS_21ConstSequenceIteratorIiEE
FNDA:4,_ZN3s216vectorIiE5eraseENS_21ConstSequenceIteratorIiEES3_
FNDA:3,_ZN3s216vectorIiE9push_backERKi
FNDA:3,_ZN3s216vectorIiE9push_backEOi
FNDA:28,_ZN3s216vectorINS0_IiEEE5clearEv
FNDA:239,_ZN3s216vectorIiE5clearEv
FNDA:3,_ZN3s216vectorIiE8pop_backEv
FNDA:2,_ZN3s216vectorINS0_IiEEE6resizeEm
FNDA:2,_ZN3s216vectorIiE6resizeEm
FNDA:6,_ZN3s216vectorINS0_IiEEE6resizeEmRKS1_
FNDA:6,_ZN3s216vectorIiE6resizeEmRKi
FNDA:2,_ZN3s216vectorINS0_IiEEEC1EOS2_
FNDA:2,_ZN3s216vectorINS0_IiEEEC2EOS2_
FNDA:32,_ZN3s216vectorIiEC1EOS1_
FNDA:32,_ZN3s216vectorIiEC2EOS1_
FNDA:1,_ZN3s216vectorIiE4swapERS1_
FNDA:1,_ZN3s216vectorINS0_IiEEE5beginEv
FNDA:8,_ZN3s216vectorIiE5beginEv
FNDA:1,_ZN3s216vectorINS0_IiEEE3endEv
FNDA:30,_ZN3s216vectorIiE3endEv
FNDA:35,_ZNK3s216vectorINS0_IiEEE6cbeginEv
FNDA:190,_ZNK3s216vectorIiE6cbeginEv
FNDA:37,_ZNK3s216vectorINS0_IiEEE4cendEv
FNDA:194,_ZNK3s216vectorIiE4cendEv
FNDA:3,_ZN3s21eqINS_6vectorIiEEEEbRKNS1_IT_EES6_
FNDA:12,_ZN3s21eqIiEEbRKNS_6vectorIT_EES5_
FNDA:10,_ZN3s21neIiEEbRKNS_6vectorIT_EES5_
FNDA:28,_ZN3s216vectorINS0_IiEEED1Ev
FNDA:28,_ZN3s216vectorINS0_IiEEED2Ev
FNDA:225,_ZN3s216vectorIiED1Ev
FNDA:225,_ZN3s216vectorIiED2Ev
FNDA:2,_ZN3s216vectorIiEaSERKS1_
FNDA:5,_ZN3s216vectorINS0_IiEEEC1Ev
FNDA:5,_ZN3s216vectorINS0_IiEEEC2Ev
FNDA:12,_ZN3s216vectorIiEC1Ev
FNDA:12,_ZN3s216vectorIiEC2Ev
FNF:84
FNH:84
DA:9,34
DA:12,216
DA:13,108
DA:14,108
DA:15,216
DA:16,108
DA:19,436
DA:20,328
DA:21,328
DA:24,19
DA:25,0
DA:26,0
DA:27,0
DA:28,0
DA:29,0
DA:30,0
DA:31,216
DA:34,234
DA:35,117
DA:36,117
DA:37,234
DA:38,117
DA:41,377
DA:42,260
DA:43,260
DA:45,2
DA:46,0
DA:47,0
DA:48,0
DA:49,0
DA:50,0
DA:51,0
DA:52,234
DA:55,68
DA:56,68
DA:57,34
DA:58,34
DA:59,34
DA:60,68
DA:63,506
DA:64,253
DA:65,253
DA:66,506
DA:69,2
DA:70,2
DA:71,2
DA:73,2
DA:74,2
DA:76,2
DA:79,7
DA:80,5
DA:81,5
DA:91,2
DA:92,2
DA:94,2
DA:95,2
DA:96,2
DA:97,2
DA:99,2
DA:103,9
DA:104,9
DA:105,9
DA:106,9
DA:108,9
DA:109,9
DA:110,9
DA:112,9
DA:113,9
DA:114,9
DA:115,9
DA:117,9
DA:121,3
DA:122,3
DA:124,3
DA:126,3
DA:129,12
DA:130,9
DA:131,9
DA:142,3
DA:143,3
DA:145,3
DA:146,3
DA:147,3
DA:149,3
DA:153,5
DA:154,5
DA:155,1
DA:158,4
DA:159,0
DA:162,3
DA:163,3
DA:164,1
DA:167,2
DA:168,0
DA:171,6
DA:172,6
DA:176,4
DA:177,4
DA:181,2
DA:182,2
DA:186,2
DA:187,2
DA:191,12
DA:192,12
DA:196,3
DA:197,3
DA:201,2
DA:202,2
DA:206,2
DA:207,2
DA:211,917
DA:212,917
DA:216,324
DA:217,324
DA:221,25
DA:222,25
DA:226,8
DA:227,8
DA:228,1
DA:229,7
DA:230,6
DA:232,6
DA:234,30
DA:235,24
DA:236,24
DA:238,6
DA:240,6
DA:241,6
DA:242,6
DA:243,7
DA:246,193
DA:247,193
DA:251,5
DA:252,5
DA:253,4
DA:255,8
DA:256,4
DA:257,4
DA:259,4
DA:261,4
DA:262,4
DA:263,4
DA:264,5
DA:267,3
DA:269,3
DA:270,0
DA:273,4
DA:275,4
DA:276,4
DA:277,11
DA:278,7
DA:279,7
DA:282,4
DA:283,13
DA:284,10
DA:285,10
DA:287,3
DA:289,3
DA:291,3
DA:292,1
DA:294,1
DA:297,1
DA:298,1
DA:299,0
DA:300,0
DA:301,0
DA:303,1
DA:305,7
DA:306,6
DA:307,0
DA:308,6
DA:309,5
DA:310,5
DA:311,6
DA:313,6
DA:314,5
DA:315,5
DA:316,1
DA:317,1
DA:318,1
DA:321,4
DA:322,4
DA:325,5
DA:327,5
DA:328,5
DA:329,15
DA:330,10
DA:331,10
DA:334,5
DA:335,6
DA:336,4
DA:337,4
DA:340,2
DA:341,0
DA:342,0
DA:343,0
DA:344,0
DA:345,0
DA:346,0
DA:348,2
DA:350,2
DA:352,3
DA:353,1
DA:354,3
DA:355,1
DA:356,1
DA:357,1
DA:360,3
DA:363,3
DA:364,3
DA:365,0
DA:366,0
DA:367,0
DA:369,3
DA:371,22
DA:372,19
DA:373,19
DA:374,1
DA:375,0
DA:376,0
DA:377,0
DA:378,0
DA:379,0
DA:380,0
DA:381,0
DA:383,30
DA:384,27
DA:385,1
DA:386,27
DA:387,7
DA:388,7
DA:389,27
DA:391,11
DA:392,8
DA:393,8
DA:394,3
DA:395,3
DA:396,3
DA:399,5
DA:400,5
DA:403,1
DA:404,1
DA:408,4
DA:410,4
DA:411,4
DA:413,4
DA:414,1
DA:415,1
DA:416,3
DA:418,3
DA:420,3
DA:422,12
DA:423,9
DA:424,9
DA:427,9
DA:428,6
DA:429,6
DA:432,3
DA:433,3
DA:435,4
DA:436,4
DA:439,3
DA:440,3
DA:442,0
DA:443,0
DA:447,0
DA:448,3
DA:450,3
DA:453,3
DA:459,6
DA:460,3
DA:461,3
DA:463,3
DA:465,3
DA:466,3
DA:467,3
DA:469,3
DA:472,3
DA:473,3
DA:474,2
DA:475,2
DA:476,2
DA:477,1
DA:479,1
DA:481,1
DA:483,5
DA:484,4
DA:485,4
DA:487,1
DA:489,1
DA:490,1
DA:491,1
DA:493,3
DA:496,267
DA:497,898
DA:498,631
DA:499,631
DA:501,267
DA:504,3
DA:505,3
DA:506,3
DA:507,3
DA:508,3
DA:509,3
DA:512,4
DA:513,4
DA:514,4
DA:517,12
DA:518,12
DA:519,2
DA:522,10
DA:523,4
DA:525,4
DA:527,4
DA:530,84
DA:531,80
DA:532,80
DA:533,2
DA:534,0
DA:535,0
DA:536,0
DA:537,0
DA:538,0
DA:539,0
DA:541,34
DA:542,30
DA:543,30
DA:545,4
DA:547,4
DA:548,4
DA:549,4
DA:550,4
DA:552,10
DA:554,20
DA:555,10
DA:556,10
DA:557,10
DA:559,5
DA:560,0
DA:561,0
DA:562,0
DA:563,0
DA:564,0
DA:565,0
DA:567,90
DA:568,80
DA:569,80
DA:571,10
DA:574,1
DA:575,1
DA:576,1
DA:577,1
DA:578,1
DA:581,9
DA:582,9
DA:586,31
DA:587,31
DA:591,225
DA:592,225
DA:596,231
DA:597,231
DA:601,15
DA:602,15
DA:604,15
DA:605,15
DA:607,59
DA:608,46
DA:609,2
DA:610,2
DA:612,44
DA:613,44
DA:616,15
DA:617,14
DA:618,1
DA:619,1
DA:621,15
DA:622,15
DA:625,10
DA:626,10
LF:379
LH:329
end_of_record
